	.text
	.file	"main.cpp"
                                        # Start of file scope inline assembly
	.globl	_ZSt21ios_base_library_initv

                                        # End of file scope inline assembly
	.globl	_ZN6FamilyC2ENSt7__cxx1112basic_stringIcSt11char_traitsIcESaIcEEES5_S5_ # -- Begin function _ZN6FamilyC2ENSt7__cxx1112basic_stringIcSt11char_traitsIcESaIcEEES5_S5_
	.p2align	4, 0x90
	.type	_ZN6FamilyC2ENSt7__cxx1112basic_stringIcSt11char_traitsIcESaIcEEES5_S5_,@function
_ZN6FamilyC2ENSt7__cxx1112basic_stringIcSt11char_traitsIcESaIcEEES5_S5_: # @_ZN6FamilyC2ENSt7__cxx1112basic_stringIcSt11char_traitsIcESaIcEEES5_S5_
.Lfunc_begin0:
	.cfi_startproc
	.cfi_personality 155, DW.ref.__gxx_personality_v0
	.cfi_lsda 27, .Lexception0
# %bb.0:
	pushq	%rbp
	.cfi_def_cfa_offset 16
	.cfi_offset %rbp, -16
	movq	%rsp, %rbp
	.cfi_def_cfa_register %rbp
	subq	$112, %rsp
	movq	%rsi, -56(%rbp)                 # 8-byte Spill
	movq	%rdx, -104(%rbp)                # 8-byte Spill
	movq	%rcx, -96(%rbp)                 # 8-byte Spill
	movq	%rdi, -8(%rbp)
	movq	%rsi, -16(%rbp)
	movq	%rdx, -24(%rbp)
	movq	%rcx, -32(%rbp)
	movq	-8(%rbp), %rdi
	movq	%rdi, -64(%rbp)                 # 8-byte Spill
	movq	%rdi, %rax
	movq	%rax, -88(%rbp)                 # 8-byte Spill
	callq	_ZNSt7__cxx1112basic_stringIcSt11char_traitsIcESaIcEEC1Ev@PLT
	movq	-64(%rbp), %rdi                 # 8-byte Reload
	addq	$32, %rdi
	movq	%rdi, -80(%rbp)                 # 8-byte Spill
	callq	_ZNSt7__cxx1112basic_stringIcSt11char_traitsIcESaIcEEC1Ev@PLT
	movq	-64(%rbp), %rdi                 # 8-byte Reload
	addq	$64, %rdi
	movq	%rdi, -72(%rbp)                 # 8-byte Spill
	callq	_ZNSt7__cxx1112basic_stringIcSt11char_traitsIcESaIcEEC1Ev@PLT
	movq	-64(%rbp), %rdi                 # 8-byte Reload
	movq	-56(%rbp), %rsi                 # 8-byte Reload
.Ltmp0:
	callq	_ZNSt7__cxx1112basic_stringIcSt11char_traitsIcESaIcEEaSERKS4_@PLT
.Ltmp1:
	jmp	.LBB0_1
.LBB0_1:
	movq	-104(%rbp), %rsi                # 8-byte Reload
	movq	-88(%rbp), %rdi                 # 8-byte Reload
	addq	$32, %rdi
.Ltmp2:
	callq	_ZNSt7__cxx1112basic_stringIcSt11char_traitsIcESaIcEEaSERKS4_@PLT
.Ltmp3:
	jmp	.LBB0_2
.LBB0_2:
	movq	-96(%rbp), %rsi                 # 8-byte Reload
	movq	-88(%rbp), %rdi                 # 8-byte Reload
	addq	$64, %rdi
.Ltmp4:
	callq	_ZNSt7__cxx1112basic_stringIcSt11char_traitsIcESaIcEEaSERKS4_@PLT
.Ltmp5:
	jmp	.LBB0_3
.LBB0_3:
	addq	$112, %rsp
	popq	%rbp
	.cfi_def_cfa %rsp, 8
	retq
.LBB0_4:
	.cfi_def_cfa %rbp, 16
.Ltmp6:
	movq	-72(%rbp), %rdi                 # 8-byte Reload
	movq	%rax, %rcx
	movl	%edx, %eax
	movq	%rcx, -40(%rbp)
	movl	%eax, -44(%rbp)
	callq	_ZNSt7__cxx1112basic_stringIcSt11char_traitsIcESaIcEED1Ev@PLT
	movq	-80(%rbp), %rdi                 # 8-byte Reload
	callq	_ZNSt7__cxx1112basic_stringIcSt11char_traitsIcESaIcEED1Ev@PLT
	movq	-64(%rbp), %rdi                 # 8-byte Reload
	callq	_ZNSt7__cxx1112basic_stringIcSt11char_traitsIcESaIcEED1Ev@PLT
# %bb.5:
	movq	-40(%rbp), %rdi
	callq	_Unwind_Resume@PLT
.Lfunc_end0:
	.size	_ZN6FamilyC2ENSt7__cxx1112basic_stringIcSt11char_traitsIcESaIcEEES5_S5_, .Lfunc_end0-_ZN6FamilyC2ENSt7__cxx1112basic_stringIcSt11char_traitsIcESaIcEEES5_S5_
	.cfi_endproc
	.section	.gcc_except_table,"a",@progbits
	.p2align	2, 0x0
GCC_except_table0:
.Lexception0:
	.byte	255                             # @LPStart Encoding = omit
	.byte	255                             # @TType Encoding = omit
	.byte	1                               # Call site Encoding = uleb128
	.uleb128 .Lcst_end0-.Lcst_begin0
.Lcst_begin0:
	.uleb128 .Ltmp0-.Lfunc_begin0           # >> Call Site 1 <<
	.uleb128 .Ltmp5-.Ltmp0                  #   Call between .Ltmp0 and .Ltmp5
	.uleb128 .Ltmp6-.Lfunc_begin0           #     jumps to .Ltmp6
	.byte	0                               #   On action: cleanup
	.uleb128 .Ltmp5-.Lfunc_begin0           # >> Call Site 2 <<
	.uleb128 .Lfunc_end0-.Ltmp5             #   Call between .Ltmp5 and .Lfunc_end0
	.byte	0                               #     has no landing pad
	.byte	0                               #   On action: cleanup
.Lcst_end0:
	.p2align	2, 0x0
                                        # -- End function
	.text
	.globl	_ZN6FamilyC2Ev                  # -- Begin function _ZN6FamilyC2Ev
	.p2align	4, 0x90
	.type	_ZN6FamilyC2Ev,@function
_ZN6FamilyC2Ev:                         # @_ZN6FamilyC2Ev
	.cfi_startproc
# %bb.0:
	pushq	%rbp
	.cfi_def_cfa_offset 16
	.cfi_offset %rbp, -16
	movq	%rsp, %rbp
	.cfi_def_cfa_register %rbp
	subq	$16, %rsp
	movq	%rdi, -8(%rbp)
	movq	-8(%rbp), %rdi
	movq	%rdi, -16(%rbp)                 # 8-byte Spill
	callq	_ZNSt7__cxx1112basic_stringIcSt11char_traitsIcESaIcEEC1Ev@PLT
	movq	-16(%rbp), %rdi                 # 8-byte Reload
	addq	$32, %rdi
	callq	_ZNSt7__cxx1112basic_stringIcSt11char_traitsIcESaIcEEC1Ev@PLT
	movq	-16(%rbp), %rdi                 # 8-byte Reload
	addq	$64, %rdi
	callq	_ZNSt7__cxx1112basic_stringIcSt11char_traitsIcESaIcEEC1Ev@PLT
	addq	$16, %rsp
	popq	%rbp
	.cfi_def_cfa %rsp, 8
	retq
.Lfunc_end1:
	.size	_ZN6FamilyC2Ev, .Lfunc_end1-_ZN6FamilyC2Ev
	.cfi_endproc
                                        # -- End function
	.globl	_ZN6Family8set_nameEPKc         # -- Begin function _ZN6Family8set_nameEPKc
	.p2align	4, 0x90
	.type	_ZN6Family8set_nameEPKc,@function
_ZN6Family8set_nameEPKc:                # @_ZN6Family8set_nameEPKc
	.cfi_startproc
# %bb.0:
	pushq	%rbp
	.cfi_def_cfa_offset 16
	.cfi_offset %rbp, -16
	movq	%rsp, %rbp
	.cfi_def_cfa_register %rbp
	subq	$16, %rsp
	movq	%rdi, -8(%rbp)
	movq	%rsi, -16(%rbp)
	movq	-8(%rbp), %rdi
	movq	-16(%rbp), %rsi
	callq	_ZNSt7__cxx1112basic_stringIcSt11char_traitsIcESaIcEEaSEPKc@PLT
	addq	$16, %rsp
	popq	%rbp
	.cfi_def_cfa %rsp, 8
	retq
.Lfunc_end2:
	.size	_ZN6Family8set_nameEPKc, .Lfunc_end2-_ZN6Family8set_nameEPKc
	.cfi_endproc
                                        # -- End function
	.globl	_ZN6Family12set_relationEPKc    # -- Begin function _ZN6Family12set_relationEPKc
	.p2align	4, 0x90
	.type	_ZN6Family12set_relationEPKc,@function
_ZN6Family12set_relationEPKc:           # @_ZN6Family12set_relationEPKc
	.cfi_startproc
# %bb.0:
	pushq	%rbp
	.cfi_def_cfa_offset 16
	.cfi_offset %rbp, -16
	movq	%rsp, %rbp
	.cfi_def_cfa_register %rbp
	subq	$16, %rsp
	movq	%rdi, -8(%rbp)
	movq	%rsi, -16(%rbp)
	movq	-8(%rbp), %rdi
	movq	-16(%rbp), %rsi
	addq	$32, %rdi
	callq	_ZNSt7__cxx1112basic_stringIcSt11char_traitsIcESaIcEEaSEPKc@PLT
	addq	$16, %rsp
	popq	%rbp
	.cfi_def_cfa %rsp, 8
	retq
.Lfunc_end3:
	.size	_ZN6Family12set_relationEPKc, .Lfunc_end3-_ZN6Family12set_relationEPKc
	.cfi_endproc
                                        # -- End function
	.globl	_ZN6Family7set_numEPKc          # -- Begin function _ZN6Family7set_numEPKc
	.p2align	4, 0x90
	.type	_ZN6Family7set_numEPKc,@function
_ZN6Family7set_numEPKc:                 # @_ZN6Family7set_numEPKc
	.cfi_startproc
# %bb.0:
	pushq	%rbp
	.cfi_def_cfa_offset 16
	.cfi_offset %rbp, -16
	movq	%rsp, %rbp
	.cfi_def_cfa_register %rbp
	subq	$16, %rsp
	movq	%rdi, -8(%rbp)
	movq	%rsi, -16(%rbp)
	movq	-8(%rbp), %rdi
	movq	-16(%rbp), %rsi
	addq	$64, %rdi
	callq	_ZNSt7__cxx1112basic_stringIcSt11char_traitsIcESaIcEEaSEPKc@PLT
	addq	$16, %rsp
	popq	%rbp
	.cfi_def_cfa %rsp, 8
	retq
.Lfunc_end4:
	.size	_ZN6Family7set_numEPKc, .Lfunc_end4-_ZN6Family7set_numEPKc
	.cfi_endproc
                                        # -- End function
	.globl	_ZN6FamilyD2Ev                  # -- Begin function _ZN6FamilyD2Ev
	.p2align	4, 0x90
	.type	_ZN6FamilyD2Ev,@function
_ZN6FamilyD2Ev:                         # @_ZN6FamilyD2Ev
	.cfi_startproc
# %bb.0:
	pushq	%rbp
	.cfi_def_cfa_offset 16
	.cfi_offset %rbp, -16
	movq	%rsp, %rbp
	.cfi_def_cfa_register %rbp
	subq	$16, %rsp
	movq	%rdi, -8(%rbp)
	movq	-8(%rbp), %rdi
	movq	%rdi, -16(%rbp)                 # 8-byte Spill
	addq	$64, %rdi
	callq	_ZNSt7__cxx1112basic_stringIcSt11char_traitsIcESaIcEED1Ev@PLT
	movq	-16(%rbp), %rdi                 # 8-byte Reload
	addq	$32, %rdi
	callq	_ZNSt7__cxx1112basic_stringIcSt11char_traitsIcESaIcEED1Ev@PLT
	movq	-16(%rbp), %rdi                 # 8-byte Reload
	callq	_ZNSt7__cxx1112basic_stringIcSt11char_traitsIcESaIcEED1Ev@PLT
	addq	$16, %rsp
	popq	%rbp
	.cfi_def_cfa %rsp, 8
	retq
.Lfunc_end5:
	.size	_ZN6FamilyD2Ev, .Lfunc_end5-_ZN6FamilyD2Ev
	.cfi_endproc
                                        # -- End function
	.globl	_ZN6Family8get_nameB5cxx11Ev    # -- Begin function _ZN6Family8get_nameB5cxx11Ev
	.p2align	4, 0x90
	.type	_ZN6Family8get_nameB5cxx11Ev,@function
_ZN6Family8get_nameB5cxx11Ev:           # @_ZN6Family8get_nameB5cxx11Ev
	.cfi_startproc
# %bb.0:
	pushq	%rbp
	.cfi_def_cfa_offset 16
	.cfi_offset %rbp, -16
	movq	%rsp, %rbp
	.cfi_def_cfa_register %rbp
	subq	$32, %rsp
	movq	%rdi, %rax
	movq	%rax, -24(%rbp)                 # 8-byte Spill
	movq	%rdi, -8(%rbp)
	movq	%rsi, -16(%rbp)
	movq	-16(%rbp), %rsi
	callq	_ZNSt7__cxx1112basic_stringIcSt11char_traitsIcESaIcEEC1ERKS4_@PLT
	movq	-24(%rbp), %rax                 # 8-byte Reload
	addq	$32, %rsp
	popq	%rbp
	.cfi_def_cfa %rsp, 8
	retq
.Lfunc_end6:
	.size	_ZN6Family8get_nameB5cxx11Ev, .Lfunc_end6-_ZN6Family8get_nameB5cxx11Ev
	.cfi_endproc
                                        # -- End function
	.globl	_ZN6Family12get_relationB5cxx11Ev # -- Begin function _ZN6Family12get_relationB5cxx11Ev
	.p2align	4, 0x90
	.type	_ZN6Family12get_relationB5cxx11Ev,@function
_ZN6Family12get_relationB5cxx11Ev:      # @_ZN6Family12get_relationB5cxx11Ev
	.cfi_startproc
# %bb.0:
	pushq	%rbp
	.cfi_def_cfa_offset 16
	.cfi_offset %rbp, -16
	movq	%rsp, %rbp
	.cfi_def_cfa_register %rbp
	subq	$32, %rsp
	movq	%rdi, %rax
	movq	%rax, -24(%rbp)                 # 8-byte Spill
	movq	%rdi, -8(%rbp)
	movq	%rsi, -16(%rbp)
	movq	-16(%rbp), %rsi
	addq	$32, %rsi
	callq	_ZNSt7__cxx1112basic_stringIcSt11char_traitsIcESaIcEEC1ERKS4_@PLT
	movq	-24(%rbp), %rax                 # 8-byte Reload
	addq	$32, %rsp
	popq	%rbp
	.cfi_def_cfa %rsp, 8
	retq
.Lfunc_end7:
	.size	_ZN6Family12get_relationB5cxx11Ev, .Lfunc_end7-_ZN6Family12get_relationB5cxx11Ev
	.cfi_endproc
                                        # -- End function
	.globl	_ZN6Family7get_numB5cxx11Ev     # -- Begin function _ZN6Family7get_numB5cxx11Ev
	.p2align	4, 0x90
	.type	_ZN6Family7get_numB5cxx11Ev,@function
_ZN6Family7get_numB5cxx11Ev:            # @_ZN6Family7get_numB5cxx11Ev
	.cfi_startproc
# %bb.0:
	pushq	%rbp
	.cfi_def_cfa_offset 16
	.cfi_offset %rbp, -16
	movq	%rsp, %rbp
	.cfi_def_cfa_register %rbp
	subq	$32, %rsp
	movq	%rdi, %rax
	movq	%rax, -24(%rbp)                 # 8-byte Spill
	movq	%rdi, -8(%rbp)
	movq	%rsi, -16(%rbp)
	movq	-16(%rbp), %rsi
	addq	$64, %rsi
	callq	_ZNSt7__cxx1112basic_stringIcSt11char_traitsIcESaIcEEC1ERKS4_@PLT
	movq	-24(%rbp), %rax                 # 8-byte Reload
	addq	$32, %rsp
	popq	%rbp
	.cfi_def_cfa %rsp, 8
	retq
.Lfunc_end8:
	.size	_ZN6Family7get_numB5cxx11Ev, .Lfunc_end8-_ZN6Family7get_numB5cxx11Ev
	.cfi_endproc
                                        # -- End function
	.globl	_ZN6Family10print_dataEv        # -- Begin function _ZN6Family10print_dataEv
	.p2align	4, 0x90
	.type	_ZN6Family10print_dataEv,@function
_ZN6Family10print_dataEv:               # @_ZN6Family10print_dataEv
	.cfi_startproc
# %bb.0:
	pushq	%rbp
	.cfi_def_cfa_offset 16
	.cfi_offset %rbp, -16
	movq	%rsp, %rbp
	.cfi_def_cfa_register %rbp
	subq	$16, %rsp
	movq	%rdi, -8(%rbp)
	movq	-8(%rbp), %rax
	movq	%rax, -16(%rbp)                 # 8-byte Spill
	leaq	.L.str(%rip), %rdi
	movb	$0, %al
	callq	printf@PLT
	movq	-16(%rbp), %rdi                 # 8-byte Reload
	callq	_ZNKSt7__cxx1112basic_stringIcSt11char_traitsIcESaIcEE5c_strEv@PLT
	movq	%rax, %rsi
	leaq	.L.str.1(%rip), %rdi
	movb	$0, %al
	callq	printf@PLT
	movq	-16(%rbp), %rdi                 # 8-byte Reload
	addq	$32, %rdi
	callq	_ZNKSt7__cxx1112basic_stringIcSt11char_traitsIcESaIcEE5c_strEv@PLT
	movq	%rax, %rsi
	leaq	.L.str.2(%rip), %rdi
	movb	$0, %al
	callq	printf@PLT
	movq	-16(%rbp), %rdi                 # 8-byte Reload
	addq	$64, %rdi
	callq	_ZNKSt7__cxx1112basic_stringIcSt11char_traitsIcESaIcEE5c_strEv@PLT
	movq	%rax, %rsi
	leaq	.L.str.3(%rip), %rdi
	movb	$0, %al
	callq	printf@PLT
	addq	$16, %rsp
	popq	%rbp
	.cfi_def_cfa %rsp, 8
	retq
.Lfunc_end9:
	.size	_ZN6Family10print_dataEv, .Lfunc_end9-_ZN6Family10print_dataEv
	.cfi_endproc
                                        # -- End function
	.section	.rodata.cst8,"aM",@progbits,8
	.p2align	3, 0x0                          # -- Begin function _ZN7StudentC2ENSt7__cxx1112basic_stringIcSt11char_traitsIcESaIcEEEtSt13unordered_mapIS5_dSt4hashIS5_ESt8equal_toIS5_ESaISt4pairIKS5_dEEE6FamilyS5_
.LCPI10_0:
	.quad	0x4056800000000000              # double 90
.LCPI10_1:
	.quad	0x4054000000000000              # double 80
.LCPI10_2:
	.quad	0x404e000000000000              # double 60
	.text
	.globl	_ZN7StudentC2ENSt7__cxx1112basic_stringIcSt11char_traitsIcESaIcEEEtSt13unordered_mapIS5_dSt4hashIS5_ESt8equal_toIS5_ESaISt4pairIKS5_dEEE6FamilyS5_
	.p2align	4, 0x90
	.type	_ZN7StudentC2ENSt7__cxx1112basic_stringIcSt11char_traitsIcESaIcEEEtSt13unordered_mapIS5_dSt4hashIS5_ESt8equal_toIS5_ESaISt4pairIKS5_dEEE6FamilyS5_,@function
_ZN7StudentC2ENSt7__cxx1112basic_stringIcSt11char_traitsIcESaIcEEEtSt13unordered_mapIS5_dSt4hashIS5_ESt8equal_toIS5_ESaISt4pairIKS5_dEEE6FamilyS5_: # @_ZN7StudentC2ENSt7__cxx1112basic_stringIcSt11char_traitsIcESaIcEEEtSt13unordered_mapIS5_dSt4hashIS5_ESt8equal_toIS5_ESaISt4pairIKS5_dEEE6FamilyS5_
.Lfunc_begin1:
	.cfi_startproc
	.cfi_personality 155, DW.ref.__gxx_personality_v0
	.cfi_lsda 27, .Lexception1
# %bb.0:
	pushq	%rbp
	.cfi_def_cfa_offset 16
	.cfi_offset %rbp, -16
	movq	%rsp, %rbp
	.cfi_def_cfa_register %rbp
	subq	$176, %rsp
	movq	%r9, -128(%rbp)                 # 8-byte Spill
	movq	%r8, -80(%rbp)                  # 8-byte Spill
	movq	%rcx, -120(%rbp)                # 8-byte Spill
	movq	%rsi, -112(%rbp)                # 8-byte Spill
	movw	%dx, %ax
	movq	%rdi, -8(%rbp)
	movq	%rsi, -16(%rbp)
	movw	%ax, -18(%rbp)
	movq	%rcx, -32(%rbp)
	movq	%r8, -40(%rbp)
	movq	%r9, -48(%rbp)
	movq	-8(%rbp), %rdi
	movq	%rdi, -88(%rbp)                 # 8-byte Spill
	addq	$8, %rdi
	movq	%rdi, -104(%rbp)                # 8-byte Spill
	callq	_ZNSt7__cxx1112basic_stringIcSt11char_traitsIcESaIcEEC1Ev@PLT
	movq	-88(%rbp), %rdi                 # 8-byte Reload
	addq	$48, %rdi
	movq	%rdi, -96(%rbp)                 # 8-byte Spill
	callq	_ZNSt13unordered_mapINSt7__cxx1112basic_stringIcSt11char_traitsIcESaIcEEEdSt4hashIS5_ESt8equal_toIS5_ESaISt4pairIKS5_dEEEC2Ev
	movq	-88(%rbp), %rdi                 # 8-byte Reload
	movq	-80(%rbp), %rsi                 # 8-byte Reload
	addq	$104, %rdi
	movq	%rdi, -72(%rbp)                 # 8-byte Spill
.Ltmp7:
	callq	_ZN6FamilyC2ERKS_
.Ltmp8:
	jmp	.LBB10_1
.LBB10_1:
	movq	-88(%rbp), %rdi                 # 8-byte Reload
	addq	$200, %rdi
	movq	%rdi, -144(%rbp)                # 8-byte Spill
	callq	_ZNSt7__cxx1112basic_stringIcSt11char_traitsIcESaIcEEC1Ev@PLT
	movq	-88(%rbp), %rdi                 # 8-byte Reload
	addq	$240, %rdi
	movq	%rdi, -136(%rbp)                # 8-byte Spill
	callq	_ZNSt7__cxx1112basic_stringIcSt11char_traitsIcESaIcEEC1Ev@PLT
	movq	-88(%rbp), %rdi                 # 8-byte Reload
	movq	-112(%rbp), %rsi                # 8-byte Reload
	addq	$8, %rdi
.Ltmp10:
	callq	_ZNSt7__cxx1112basic_stringIcSt11char_traitsIcESaIcEEaSERKS4_@PLT
.Ltmp11:
	jmp	.LBB10_2
.LBB10_2:
	movq	-120(%rbp), %rsi                # 8-byte Reload
	movq	-88(%rbp), %rdi                 # 8-byte Reload
	movw	-18(%rbp), %ax
	movw	%ax, 40(%rdi)
	addq	$48, %rdi
.Ltmp12:
	callq	_ZNSt13unordered_mapINSt7__cxx1112basic_stringIcSt11char_traitsIcESaIcEEEdSt4hashIS5_ESt8equal_toIS5_ESaISt4pairIKS5_dEEEaSERKSE_
.Ltmp13:
	jmp	.LBB10_3
.LBB10_3:
	movq	-128(%rbp), %rsi                # 8-byte Reload
	movq	-88(%rbp), %rdi                 # 8-byte Reload
	addq	$200, %rdi
.Ltmp14:
	callq	_ZNSt7__cxx1112basic_stringIcSt11char_traitsIcESaIcEEaSERKS4_@PLT
.Ltmp15:
	jmp	.LBB10_4
.LBB10_4:
.Ltmp16:
	movq	-88(%rbp), %rdi                 # 8-byte Reload
	callq	_ZN7Student12set_promedioEv
.Ltmp17:
	movsd	%xmm0, -152(%rbp)               # 8-byte Spill
	jmp	.LBB10_5
.LBB10_5:
	movq	-88(%rbp), %rax                 # 8-byte Reload
	movsd	-152(%rbp), %xmm0               # 8-byte Reload
                                        # xmm0 = mem[0],zero
	movsd	%xmm0, 232(%rax)
	movsd	232(%rax), %xmm0                # xmm0 = mem[0],zero
	movsd	.LCPI10_0(%rip), %xmm1          # xmm1 = mem[0],zero
	ucomisd	%xmm1, %xmm0
	jb	.LBB10_7
# %bb.6:
	leaq	.L.str.4(%rip), %rax
	movq	%rax, -160(%rbp)                # 8-byte Spill
	jmp	.LBB10_11
.LBB10_7:
	movq	-88(%rbp), %rax                 # 8-byte Reload
	movsd	232(%rax), %xmm0                # xmm0 = mem[0],zero
	movsd	.LCPI10_1(%rip), %xmm1          # xmm1 = mem[0],zero
	ucomisd	%xmm1, %xmm0
	jb	.LBB10_9
# %bb.8:
	leaq	.L.str.5(%rip), %rax
	movq	%rax, -168(%rbp)                # 8-byte Spill
	jmp	.LBB10_10
.LBB10_9:
	movq	-88(%rbp), %rax                 # 8-byte Reload
	movsd	232(%rax), %xmm0                # xmm0 = mem[0],zero
	movsd	.LCPI10_2(%rip), %xmm1          # xmm1 = mem[0],zero
	leaq	.L.str.7(%rip), %rax
	leaq	.L.str.6(%rip), %rcx
	ucomisd	%xmm1, %xmm0
	cmovaeq	%rcx, %rax
	movq	%rax, -168(%rbp)                # 8-byte Spill
.LBB10_10:
	movq	-168(%rbp), %rax                # 8-byte Reload
	movq	%rax, -160(%rbp)                # 8-byte Spill
.LBB10_11:
	movq	-88(%rbp), %rdi                 # 8-byte Reload
	movq	-160(%rbp), %rsi                # 8-byte Reload
	addq	$240, %rdi
.Ltmp18:
	callq	_ZNSt7__cxx1112basic_stringIcSt11char_traitsIcESaIcEEaSEPKc@PLT
.Ltmp19:
	jmp	.LBB10_12
.LBB10_12:
	movq	-88(%rbp), %rax                 # 8-byte Reload
	movb	$1, 272(%rax)
	addq	$176, %rsp
	popq	%rbp
	.cfi_def_cfa %rsp, 8
	retq
.LBB10_13:
	.cfi_def_cfa %rbp, 16
.Ltmp9:
	movq	%rax, %rcx
	movl	%edx, %eax
	movq	%rcx, -56(%rbp)
	movl	%eax, -60(%rbp)
	jmp	.LBB10_15
.LBB10_14:
.Ltmp20:
	movq	-136(%rbp), %rdi                # 8-byte Reload
	movq	%rax, %rcx
	movl	%edx, %eax
	movq	%rcx, -56(%rbp)
	movl	%eax, -60(%rbp)
	callq	_ZNSt7__cxx1112basic_stringIcSt11char_traitsIcESaIcEED1Ev@PLT
	movq	-144(%rbp), %rdi                # 8-byte Reload
	callq	_ZNSt7__cxx1112basic_stringIcSt11char_traitsIcESaIcEED1Ev@PLT
	movq	-72(%rbp), %rdi                 # 8-byte Reload
	callq	_ZN6FamilyD1Ev
.LBB10_15:
	movq	-96(%rbp), %rdi                 # 8-byte Reload
	callq	_ZNSt13unordered_mapINSt7__cxx1112basic_stringIcSt11char_traitsIcESaIcEEEdSt4hashIS5_ESt8equal_toIS5_ESaISt4pairIKS5_dEEED2Ev
	movq	-104(%rbp), %rdi                # 8-byte Reload
	callq	_ZNSt7__cxx1112basic_stringIcSt11char_traitsIcESaIcEED1Ev@PLT
# %bb.16:
	movq	-56(%rbp), %rdi
	callq	_Unwind_Resume@PLT
.Lfunc_end10:
	.size	_ZN7StudentC2ENSt7__cxx1112basic_stringIcSt11char_traitsIcESaIcEEEtSt13unordered_mapIS5_dSt4hashIS5_ESt8equal_toIS5_ESaISt4pairIKS5_dEEE6FamilyS5_, .Lfunc_end10-_ZN7StudentC2ENSt7__cxx1112basic_stringIcSt11char_traitsIcESaIcEEEtSt13unordered_mapIS5_dSt4hashIS5_ESt8equal_toIS5_ESaISt4pairIKS5_dEEE6FamilyS5_
	.cfi_endproc
	.section	.gcc_except_table,"a",@progbits
	.p2align	2, 0x0
GCC_except_table10:
.Lexception1:
	.byte	255                             # @LPStart Encoding = omit
	.byte	255                             # @TType Encoding = omit
	.byte	1                               # Call site Encoding = uleb128
	.uleb128 .Lcst_end1-.Lcst_begin1
.Lcst_begin1:
	.uleb128 .Ltmp7-.Lfunc_begin1           # >> Call Site 1 <<
	.uleb128 .Ltmp8-.Ltmp7                  #   Call between .Ltmp7 and .Ltmp8
	.uleb128 .Ltmp9-.Lfunc_begin1           #     jumps to .Ltmp9
	.byte	0                               #   On action: cleanup
	.uleb128 .Ltmp10-.Lfunc_begin1          # >> Call Site 2 <<
	.uleb128 .Ltmp19-.Ltmp10                #   Call between .Ltmp10 and .Ltmp19
	.uleb128 .Ltmp20-.Lfunc_begin1          #     jumps to .Ltmp20
	.byte	0                               #   On action: cleanup
	.uleb128 .Ltmp19-.Lfunc_begin1          # >> Call Site 3 <<
	.uleb128 .Lfunc_end10-.Ltmp19           #   Call between .Ltmp19 and .Lfunc_end10
	.byte	0                               #     has no landing pad
	.byte	0                               #   On action: cleanup
.Lcst_end1:
	.p2align	2, 0x0
                                        # -- End function
	.section	.text._ZNSt13unordered_mapINSt7__cxx1112basic_stringIcSt11char_traitsIcESaIcEEEdSt4hashIS5_ESt8equal_toIS5_ESaISt4pairIKS5_dEEEC2Ev,"axG",@progbits,_ZNSt13unordered_mapINSt7__cxx1112basic_stringIcSt11char_traitsIcESaIcEEEdSt4hashIS5_ESt8equal_toIS5_ESaISt4pairIKS5_dEEEC2Ev,comdat
	.weak	_ZNSt13unordered_mapINSt7__cxx1112basic_stringIcSt11char_traitsIcESaIcEEEdSt4hashIS5_ESt8equal_toIS5_ESaISt4pairIKS5_dEEEC2Ev # -- Begin function _ZNSt13unordered_mapINSt7__cxx1112basic_stringIcSt11char_traitsIcESaIcEEEdSt4hashIS5_ESt8equal_toIS5_ESaISt4pairIKS5_dEEEC2Ev
	.p2align	4, 0x90
	.type	_ZNSt13unordered_mapINSt7__cxx1112basic_stringIcSt11char_traitsIcESaIcEEEdSt4hashIS5_ESt8equal_toIS5_ESaISt4pairIKS5_dEEEC2Ev,@function
_ZNSt13unordered_mapINSt7__cxx1112basic_stringIcSt11char_traitsIcESaIcEEEdSt4hashIS5_ESt8equal_toIS5_ESaISt4pairIKS5_dEEEC2Ev: # @_ZNSt13unordered_mapINSt7__cxx1112basic_stringIcSt11char_traitsIcESaIcEEEdSt4hashIS5_ESt8equal_toIS5_ESaISt4pairIKS5_dEEEC2Ev
	.cfi_startproc
# %bb.0:
	pushq	%rbp
	.cfi_def_cfa_offset 16
	.cfi_offset %rbp, -16
	movq	%rsp, %rbp
	.cfi_def_cfa_register %rbp
	subq	$16, %rsp
	movq	%rdi, -8(%rbp)
	movq	-8(%rbp), %rdi
	callq	_ZNSt10_HashtableINSt7__cxx1112basic_stringIcSt11char_traitsIcESaIcEEESt4pairIKS5_dESaIS8_ENSt8__detail10_Select1stESt8equal_toIS5_ESt4hashIS5_ENSA_18_Mod_range_hashingENSA_20_Default_ranged_hashENSA_20_Prime_rehash_policyENSA_17_Hashtable_traitsILb1ELb0ELb1EEEEC2Ev
	addq	$16, %rsp
	popq	%rbp
	.cfi_def_cfa %rsp, 8
	retq
.Lfunc_end11:
	.size	_ZNSt13unordered_mapINSt7__cxx1112basic_stringIcSt11char_traitsIcESaIcEEEdSt4hashIS5_ESt8equal_toIS5_ESaISt4pairIKS5_dEEEC2Ev, .Lfunc_end11-_ZNSt13unordered_mapINSt7__cxx1112basic_stringIcSt11char_traitsIcESaIcEEEdSt4hashIS5_ESt8equal_toIS5_ESaISt4pairIKS5_dEEEC2Ev
	.cfi_endproc
                                        # -- End function
	.section	.text._ZN6FamilyC2ERKS_,"axG",@progbits,_ZN6FamilyC2ERKS_,comdat
	.weak	_ZN6FamilyC2ERKS_               # -- Begin function _ZN6FamilyC2ERKS_
	.p2align	4, 0x90
	.type	_ZN6FamilyC2ERKS_,@function
_ZN6FamilyC2ERKS_:                      # @_ZN6FamilyC2ERKS_
.Lfunc_begin2:
	.cfi_startproc
	.cfi_personality 155, DW.ref.__gxx_personality_v0
	.cfi_lsda 27, .Lexception2
# %bb.0:
	pushq	%rbp
	.cfi_def_cfa_offset 16
	.cfi_offset %rbp, -16
	movq	%rsp, %rbp
	.cfi_def_cfa_register %rbp
	subq	$64, %rsp
	movq	%rdi, -8(%rbp)
	movq	%rsi, -16(%rbp)
	movq	-8(%rbp), %rdi
	movq	%rdi, -48(%rbp)                 # 8-byte Spill
	movq	%rdi, %rax
	movq	%rax, -56(%rbp)                 # 8-byte Spill
	movq	-16(%rbp), %rsi
	callq	_ZNSt7__cxx1112basic_stringIcSt11char_traitsIcESaIcEEC1ERKS4_@PLT
	movq	-48(%rbp), %rdi                 # 8-byte Reload
	addq	$32, %rdi
	movq	%rdi, -40(%rbp)                 # 8-byte Spill
	movq	-16(%rbp), %rsi
	addq	$32, %rsi
.Ltmp21:
	callq	_ZNSt7__cxx1112basic_stringIcSt11char_traitsIcESaIcEEC1ERKS4_@PLT
.Ltmp22:
	jmp	.LBB12_1
.LBB12_1:
	movq	-56(%rbp), %rdi                 # 8-byte Reload
	addq	$64, %rdi
	movq	-16(%rbp), %rsi
	addq	$64, %rsi
.Ltmp24:
	callq	_ZNSt7__cxx1112basic_stringIcSt11char_traitsIcESaIcEEC1ERKS4_@PLT
.Ltmp25:
	jmp	.LBB12_2
.LBB12_2:
	addq	$64, %rsp
	popq	%rbp
	.cfi_def_cfa %rsp, 8
	retq
.LBB12_3:
	.cfi_def_cfa %rbp, 16
.Ltmp23:
	movq	%rax, %rcx
	movl	%edx, %eax
	movq	%rcx, -24(%rbp)
	movl	%eax, -28(%rbp)
	jmp	.LBB12_5
.LBB12_4:
.Ltmp26:
	movq	-40(%rbp), %rdi                 # 8-byte Reload
	movq	%rax, %rcx
	movl	%edx, %eax
	movq	%rcx, -24(%rbp)
	movl	%eax, -28(%rbp)
	callq	_ZNSt7__cxx1112basic_stringIcSt11char_traitsIcESaIcEED1Ev@PLT
.LBB12_5:
	movq	-48(%rbp), %rdi                 # 8-byte Reload
	callq	_ZNSt7__cxx1112basic_stringIcSt11char_traitsIcESaIcEED1Ev@PLT
# %bb.6:
	movq	-24(%rbp), %rdi
	callq	_Unwind_Resume@PLT
.Lfunc_end12:
	.size	_ZN6FamilyC2ERKS_, .Lfunc_end12-_ZN6FamilyC2ERKS_
	.cfi_endproc
	.section	.gcc_except_table._ZN6FamilyC2ERKS_,"aG",@progbits,_ZN6FamilyC2ERKS_,comdat
	.p2align	2, 0x0
GCC_except_table12:
.Lexception2:
	.byte	255                             # @LPStart Encoding = omit
	.byte	255                             # @TType Encoding = omit
	.byte	1                               # Call site Encoding = uleb128
	.uleb128 .Lcst_end2-.Lcst_begin2
.Lcst_begin2:
	.uleb128 .Lfunc_begin2-.Lfunc_begin2    # >> Call Site 1 <<
	.uleb128 .Ltmp21-.Lfunc_begin2          #   Call between .Lfunc_begin2 and .Ltmp21
	.byte	0                               #     has no landing pad
	.byte	0                               #   On action: cleanup
	.uleb128 .Ltmp21-.Lfunc_begin2          # >> Call Site 2 <<
	.uleb128 .Ltmp22-.Ltmp21                #   Call between .Ltmp21 and .Ltmp22
	.uleb128 .Ltmp23-.Lfunc_begin2          #     jumps to .Ltmp23
	.byte	0                               #   On action: cleanup
	.uleb128 .Ltmp24-.Lfunc_begin2          # >> Call Site 3 <<
	.uleb128 .Ltmp25-.Ltmp24                #   Call between .Ltmp24 and .Ltmp25
	.uleb128 .Ltmp26-.Lfunc_begin2          #     jumps to .Ltmp26
	.byte	0                               #   On action: cleanup
	.uleb128 .Ltmp25-.Lfunc_begin2          # >> Call Site 4 <<
	.uleb128 .Lfunc_end12-.Ltmp25           #   Call between .Ltmp25 and .Lfunc_end12
	.byte	0                               #     has no landing pad
	.byte	0                               #   On action: cleanup
.Lcst_end2:
	.p2align	2, 0x0
                                        # -- End function
	.section	.text._ZNSt13unordered_mapINSt7__cxx1112basic_stringIcSt11char_traitsIcESaIcEEEdSt4hashIS5_ESt8equal_toIS5_ESaISt4pairIKS5_dEEEaSERKSE_,"axG",@progbits,_ZNSt13unordered_mapINSt7__cxx1112basic_stringIcSt11char_traitsIcESaIcEEEdSt4hashIS5_ESt8equal_toIS5_ESaISt4pairIKS5_dEEEaSERKSE_,comdat
	.weak	_ZNSt13unordered_mapINSt7__cxx1112basic_stringIcSt11char_traitsIcESaIcEEEdSt4hashIS5_ESt8equal_toIS5_ESaISt4pairIKS5_dEEEaSERKSE_ # -- Begin function _ZNSt13unordered_mapINSt7__cxx1112basic_stringIcSt11char_traitsIcESaIcEEEdSt4hashIS5_ESt8equal_toIS5_ESaISt4pairIKS5_dEEEaSERKSE_
	.p2align	4, 0x90
	.type	_ZNSt13unordered_mapINSt7__cxx1112basic_stringIcSt11char_traitsIcESaIcEEEdSt4hashIS5_ESt8equal_toIS5_ESaISt4pairIKS5_dEEEaSERKSE_,@function
_ZNSt13unordered_mapINSt7__cxx1112basic_stringIcSt11char_traitsIcESaIcEEEdSt4hashIS5_ESt8equal_toIS5_ESaISt4pairIKS5_dEEEaSERKSE_: # @_ZNSt13unordered_mapINSt7__cxx1112basic_stringIcSt11char_traitsIcESaIcEEEdSt4hashIS5_ESt8equal_toIS5_ESaISt4pairIKS5_dEEEaSERKSE_
	.cfi_startproc
# %bb.0:
	pushq	%rbp
	.cfi_def_cfa_offset 16
	.cfi_offset %rbp, -16
	movq	%rsp, %rbp
	.cfi_def_cfa_register %rbp
	subq	$32, %rsp
	movq	%rdi, -8(%rbp)
	movq	%rsi, -16(%rbp)
	movq	-8(%rbp), %rdi
	movq	%rdi, -24(%rbp)                 # 8-byte Spill
	movq	-16(%rbp), %rsi
	callq	_ZNSt10_HashtableINSt7__cxx1112basic_stringIcSt11char_traitsIcESaIcEEESt4pairIKS5_dESaIS8_ENSt8__detail10_Select1stESt8equal_toIS5_ESt4hashIS5_ENSA_18_Mod_range_hashingENSA_20_Default_ranged_hashENSA_20_Prime_rehash_policyENSA_17_Hashtable_traitsILb1ELb0ELb1EEEEaSERKSL_
                                        # kill: def $rcx killed $rax
	movq	-24(%rbp), %rax                 # 8-byte Reload
	addq	$32, %rsp
	popq	%rbp
	.cfi_def_cfa %rsp, 8
	retq
.Lfunc_end13:
	.size	_ZNSt13unordered_mapINSt7__cxx1112basic_stringIcSt11char_traitsIcESaIcEEEdSt4hashIS5_ESt8equal_toIS5_ESaISt4pairIKS5_dEEEaSERKSE_, .Lfunc_end13-_ZNSt13unordered_mapINSt7__cxx1112basic_stringIcSt11char_traitsIcESaIcEEEdSt4hashIS5_ESt8equal_toIS5_ESaISt4pairIKS5_dEEEaSERKSE_
	.cfi_endproc
                                        # -- End function
	.text
	.globl	_ZN7Student12set_promedioEv     # -- Begin function _ZN7Student12set_promedioEv
	.p2align	4, 0x90
	.type	_ZN7Student12set_promedioEv,@function
_ZN7Student12set_promedioEv:            # @_ZN7Student12set_promedioEv
	.cfi_startproc
# %bb.0:
	pushq	%rbp
	.cfi_def_cfa_offset 16
	.cfi_offset %rbp, -16
	movq	%rsp, %rbp
	.cfi_def_cfa_register %rbp
	subq	$112, %rsp
	movq	%fs:40, %rax
	movq	%rax, -8(%rbp)
	movq	%rdi, -72(%rbp)
	movq	-72(%rbp), %rax
	movq	%rax, -104(%rbp)                # 8-byte Spill
	movl	$0, -76(%rbp)
	xorps	%xmm0, %xmm0
	movsd	%xmm0, -88(%rbp)
	addq	$48, %rax
	movq	%rax, -96(%rbp)
	movq	-96(%rbp), %rdi
	callq	_ZNSt13unordered_mapINSt7__cxx1112basic_stringIcSt11char_traitsIcESaIcEEEdSt4hashIS5_ESt8equal_toIS5_ESaISt4pairIKS5_dEEE5beginEv
	movq	%rax, -56(%rbp)
	movq	-96(%rbp), %rdi
	callq	_ZNSt13unordered_mapINSt7__cxx1112basic_stringIcSt11char_traitsIcESaIcEEEdSt4hashIS5_ESt8equal_toIS5_ESaISt4pairIKS5_dEEE3endEv
	movq	%rax, -64(%rbp)
.LBB14_1:                               # =>This Inner Loop Header: Depth=1
	leaq	-56(%rbp), %rdi
	leaq	-64(%rbp), %rsi
	callq	_ZNSt8__detailneERKNS_19_Node_iterator_baseISt4pairIKNSt7__cxx1112basic_stringIcSt11char_traitsIcESaIcEEEdELb1EEESC_
	testb	$1, %al
	jne	.LBB14_2
	jmp	.LBB14_4
.LBB14_2:                               #   in Loop: Header=BB14_1 Depth=1
	leaq	-56(%rbp), %rdi
	callq	_ZNKSt8__detail14_Node_iteratorISt4pairIKNSt7__cxx1112basic_stringIcSt11char_traitsIcESaIcEEEdELb0ELb1EEdeEv
	movq	%rax, %rsi
	leaq	-48(%rbp), %rdi
	callq	_ZNSt4pairIKNSt7__cxx1112basic_stringIcSt11char_traitsIcESaIcEEEdEC2ERKS7_
	movsd	-16(%rbp), %xmm0                # xmm0 = mem[0],zero
	addsd	-88(%rbp), %xmm0
	movsd	%xmm0, -88(%rbp)
	movl	-76(%rbp), %eax
	addl	$1, %eax
	movl	%eax, -76(%rbp)
	leaq	-48(%rbp), %rdi
	callq	_ZNSt4pairIKNSt7__cxx1112basic_stringIcSt11char_traitsIcESaIcEEEdED2Ev
# %bb.3:                                #   in Loop: Header=BB14_1 Depth=1
	leaq	-56(%rbp), %rdi
	callq	_ZNSt8__detail14_Node_iteratorISt4pairIKNSt7__cxx1112basic_stringIcSt11char_traitsIcESaIcEEEdELb0ELb1EEppEv
	jmp	.LBB14_1
.LBB14_4:
	movq	-104(%rbp), %rax                # 8-byte Reload
	movsd	-88(%rbp), %xmm0                # xmm0 = mem[0],zero
	cvtsi2sdl	-76(%rbp), %xmm1
	divsd	%xmm1, %xmm0
	movsd	%xmm0, 232(%rax)
	movsd	-88(%rbp), %xmm0                # xmm0 = mem[0],zero
	cvtsi2sdl	-76(%rbp), %xmm1
	divsd	%xmm1, %xmm0
	movsd	%xmm0, -112(%rbp)               # 8-byte Spill
	movq	%fs:40, %rax
	movq	-8(%rbp), %rcx
	cmpq	%rcx, %rax
	jne	.LBB14_6
# %bb.5:
	movsd	-112(%rbp), %xmm0               # 8-byte Reload
                                        # xmm0 = mem[0],zero
	addq	$112, %rsp
	popq	%rbp
	.cfi_def_cfa %rsp, 8
	retq
.LBB14_6:
	.cfi_def_cfa %rbp, 16
	callq	__stack_chk_fail@PLT
.Lfunc_end14:
	.size	_ZN7Student12set_promedioEv, .Lfunc_end14-_ZN7Student12set_promedioEv
	.cfi_endproc
                                        # -- End function
	.section	.text._ZNSt13unordered_mapINSt7__cxx1112basic_stringIcSt11char_traitsIcESaIcEEEdSt4hashIS5_ESt8equal_toIS5_ESaISt4pairIKS5_dEEED2Ev,"axG",@progbits,_ZNSt13unordered_mapINSt7__cxx1112basic_stringIcSt11char_traitsIcESaIcEEEdSt4hashIS5_ESt8equal_toIS5_ESaISt4pairIKS5_dEEED2Ev,comdat
	.weak	_ZNSt13unordered_mapINSt7__cxx1112basic_stringIcSt11char_traitsIcESaIcEEEdSt4hashIS5_ESt8equal_toIS5_ESaISt4pairIKS5_dEEED2Ev # -- Begin function _ZNSt13unordered_mapINSt7__cxx1112basic_stringIcSt11char_traitsIcESaIcEEEdSt4hashIS5_ESt8equal_toIS5_ESaISt4pairIKS5_dEEED2Ev
	.p2align	4, 0x90
	.type	_ZNSt13unordered_mapINSt7__cxx1112basic_stringIcSt11char_traitsIcESaIcEEEdSt4hashIS5_ESt8equal_toIS5_ESaISt4pairIKS5_dEEED2Ev,@function
_ZNSt13unordered_mapINSt7__cxx1112basic_stringIcSt11char_traitsIcESaIcEEEdSt4hashIS5_ESt8equal_toIS5_ESaISt4pairIKS5_dEEED2Ev: # @_ZNSt13unordered_mapINSt7__cxx1112basic_stringIcSt11char_traitsIcESaIcEEEdSt4hashIS5_ESt8equal_toIS5_ESaISt4pairIKS5_dEEED2Ev
	.cfi_startproc
# %bb.0:
	pushq	%rbp
	.cfi_def_cfa_offset 16
	.cfi_offset %rbp, -16
	movq	%rsp, %rbp
	.cfi_def_cfa_register %rbp
	subq	$16, %rsp
	movq	%rdi, -8(%rbp)
	movq	-8(%rbp), %rdi
	callq	_ZNSt10_HashtableINSt7__cxx1112basic_stringIcSt11char_traitsIcESaIcEEESt4pairIKS5_dESaIS8_ENSt8__detail10_Select1stESt8equal_toIS5_ESt4hashIS5_ENSA_18_Mod_range_hashingENSA_20_Default_ranged_hashENSA_20_Prime_rehash_policyENSA_17_Hashtable_traitsILb1ELb0ELb1EEEED2Ev
	addq	$16, %rsp
	popq	%rbp
	.cfi_def_cfa %rsp, 8
	retq
.Lfunc_end15:
	.size	_ZNSt13unordered_mapINSt7__cxx1112basic_stringIcSt11char_traitsIcESaIcEEEdSt4hashIS5_ESt8equal_toIS5_ESaISt4pairIKS5_dEEED2Ev, .Lfunc_end15-_ZNSt13unordered_mapINSt7__cxx1112basic_stringIcSt11char_traitsIcESaIcEEEdSt4hashIS5_ESt8equal_toIS5_ESaISt4pairIKS5_dEEED2Ev
	.cfi_endproc
                                        # -- End function
	.section	.rodata.cst8,"aM",@progbits,8
	.p2align	3, 0x0                          # -- Begin function _ZN7StudentC2Ev
.LCPI16_0:
	.quad	0x4056800000000000              # double 90
.LCPI16_1:
	.quad	0x4054000000000000              # double 80
.LCPI16_2:
	.quad	0x404e000000000000              # double 60
	.text
	.globl	_ZN7StudentC2Ev
	.p2align	4, 0x90
	.type	_ZN7StudentC2Ev,@function
_ZN7StudentC2Ev:                        # @_ZN7StudentC2Ev
.Lfunc_begin3:
	.cfi_startproc
	.cfi_personality 155, DW.ref.__gxx_personality_v0
	.cfi_lsda 27, .Lexception3
# %bb.0:
	pushq	%rbp
	.cfi_def_cfa_offset 16
	.cfi_offset %rbp, -16
	movq	%rsp, %rbp
	.cfi_def_cfa_register %rbp
	subq	$96, %rsp
	movq	%rdi, -8(%rbp)
	movq	-8(%rbp), %rdi
	movq	%rdi, -40(%rbp)                 # 8-byte Spill
	addq	$8, %rdi
	movq	%rdi, -56(%rbp)                 # 8-byte Spill
	callq	_ZNSt7__cxx1112basic_stringIcSt11char_traitsIcESaIcEEC1Ev@PLT
	movq	-40(%rbp), %rdi                 # 8-byte Reload
	addq	$48, %rdi
	movq	%rdi, -48(%rbp)                 # 8-byte Spill
	callq	_ZNSt13unordered_mapINSt7__cxx1112basic_stringIcSt11char_traitsIcESaIcEEEdSt4hashIS5_ESt8equal_toIS5_ESaISt4pairIKS5_dEEEC2Ev
	movq	-40(%rbp), %rdi                 # 8-byte Reload
	addq	$104, %rdi
	movq	%rdi, -32(%rbp)                 # 8-byte Spill
.Ltmp27:
	callq	_ZN6FamilyC1Ev
.Ltmp28:
	jmp	.LBB16_1
.LBB16_1:
	movq	-40(%rbp), %rdi                 # 8-byte Reload
	addq	$200, %rdi
	movq	%rdi, -72(%rbp)                 # 8-byte Spill
	callq	_ZNSt7__cxx1112basic_stringIcSt11char_traitsIcESaIcEEC1Ev@PLT
	movq	-40(%rbp), %rdi                 # 8-byte Reload
	addq	$240, %rdi
	movq	%rdi, -64(%rbp)                 # 8-byte Spill
	callq	_ZNSt7__cxx1112basic_stringIcSt11char_traitsIcESaIcEEC1Ev@PLT
	movq	-40(%rbp), %rax                 # 8-byte Reload
	movsd	232(%rax), %xmm0                # xmm0 = mem[0],zero
	movsd	.LCPI16_0(%rip), %xmm1          # xmm1 = mem[0],zero
	ucomisd	%xmm1, %xmm0
	jb	.LBB16_3
# %bb.2:
	leaq	.L.str.4(%rip), %rax
	movq	%rax, -80(%rbp)                 # 8-byte Spill
	jmp	.LBB16_7
.LBB16_3:
	movq	-40(%rbp), %rax                 # 8-byte Reload
	movsd	232(%rax), %xmm0                # xmm0 = mem[0],zero
	movsd	.LCPI16_1(%rip), %xmm1          # xmm1 = mem[0],zero
	ucomisd	%xmm1, %xmm0
	jb	.LBB16_5
# %bb.4:
	leaq	.L.str.5(%rip), %rax
	movq	%rax, -88(%rbp)                 # 8-byte Spill
	jmp	.LBB16_6
.LBB16_5:
	movq	-40(%rbp), %rax                 # 8-byte Reload
	movsd	232(%rax), %xmm0                # xmm0 = mem[0],zero
	movsd	.LCPI16_2(%rip), %xmm1          # xmm1 = mem[0],zero
	leaq	.L.str.7(%rip), %rax
	leaq	.L.str.6(%rip), %rcx
	ucomisd	%xmm1, %xmm0
	cmovaeq	%rcx, %rax
	movq	%rax, -88(%rbp)                 # 8-byte Spill
.LBB16_6:
	movq	-88(%rbp), %rax                 # 8-byte Reload
	movq	%rax, -80(%rbp)                 # 8-byte Spill
.LBB16_7:
	movq	-40(%rbp), %rdi                 # 8-byte Reload
	movq	-80(%rbp), %rsi                 # 8-byte Reload
	addq	$240, %rdi
.Ltmp30:
	callq	_ZNSt7__cxx1112basic_stringIcSt11char_traitsIcESaIcEEaSEPKc@PLT
.Ltmp31:
	jmp	.LBB16_8
.LBB16_8:
	addq	$96, %rsp
	popq	%rbp
	.cfi_def_cfa %rsp, 8
	retq
.LBB16_9:
	.cfi_def_cfa %rbp, 16
.Ltmp29:
	movq	%rax, %rcx
	movl	%edx, %eax
	movq	%rcx, -16(%rbp)
	movl	%eax, -20(%rbp)
	jmp	.LBB16_11
.LBB16_10:
.Ltmp32:
	movq	-64(%rbp), %rdi                 # 8-byte Reload
	movq	%rax, %rcx
	movl	%edx, %eax
	movq	%rcx, -16(%rbp)
	movl	%eax, -20(%rbp)
	callq	_ZNSt7__cxx1112basic_stringIcSt11char_traitsIcESaIcEED1Ev@PLT
	movq	-72(%rbp), %rdi                 # 8-byte Reload
	callq	_ZNSt7__cxx1112basic_stringIcSt11char_traitsIcESaIcEED1Ev@PLT
	movq	-32(%rbp), %rdi                 # 8-byte Reload
	callq	_ZN6FamilyD1Ev
.LBB16_11:
	movq	-48(%rbp), %rdi                 # 8-byte Reload
	callq	_ZNSt13unordered_mapINSt7__cxx1112basic_stringIcSt11char_traitsIcESaIcEEEdSt4hashIS5_ESt8equal_toIS5_ESaISt4pairIKS5_dEEED2Ev
	movq	-56(%rbp), %rdi                 # 8-byte Reload
	callq	_ZNSt7__cxx1112basic_stringIcSt11char_traitsIcESaIcEED1Ev@PLT
# %bb.12:
	movq	-16(%rbp), %rdi
	callq	_Unwind_Resume@PLT
.Lfunc_end16:
	.size	_ZN7StudentC2Ev, .Lfunc_end16-_ZN7StudentC2Ev
	.cfi_endproc
	.section	.gcc_except_table,"a",@progbits
	.p2align	2, 0x0
GCC_except_table16:
.Lexception3:
	.byte	255                             # @LPStart Encoding = omit
	.byte	255                             # @TType Encoding = omit
	.byte	1                               # Call site Encoding = uleb128
	.uleb128 .Lcst_end3-.Lcst_begin3
.Lcst_begin3:
	.uleb128 .Ltmp27-.Lfunc_begin3          # >> Call Site 1 <<
	.uleb128 .Ltmp28-.Ltmp27                #   Call between .Ltmp27 and .Ltmp28
	.uleb128 .Ltmp29-.Lfunc_begin3          #     jumps to .Ltmp29
	.byte	0                               #   On action: cleanup
	.uleb128 .Ltmp30-.Lfunc_begin3          # >> Call Site 2 <<
	.uleb128 .Ltmp31-.Ltmp30                #   Call between .Ltmp30 and .Ltmp31
	.uleb128 .Ltmp32-.Lfunc_begin3          #     jumps to .Ltmp32
	.byte	0                               #   On action: cleanup
	.uleb128 .Ltmp31-.Lfunc_begin3          # >> Call Site 3 <<
	.uleb128 .Lfunc_end16-.Ltmp31           #   Call between .Ltmp31 and .Lfunc_end16
	.byte	0                               #     has no landing pad
	.byte	0                               #   On action: cleanup
.Lcst_end3:
	.p2align	2, 0x0
                                        # -- End function
	.text
	.globl	_ZN7StudentD2Ev                 # -- Begin function _ZN7StudentD2Ev
	.p2align	4, 0x90
	.type	_ZN7StudentD2Ev,@function
_ZN7StudentD2Ev:                        # @_ZN7StudentD2Ev
	.cfi_startproc
# %bb.0:
	pushq	%rbp
	.cfi_def_cfa_offset 16
	.cfi_offset %rbp, -16
	movq	%rsp, %rbp
	.cfi_def_cfa_register %rbp
	subq	$16, %rsp
	movq	%rdi, -8(%rbp)
	movq	-8(%rbp), %rdi
	movq	%rdi, -16(%rbp)                 # 8-byte Spill
	addq	$240, %rdi
	callq	_ZNSt7__cxx1112basic_stringIcSt11char_traitsIcESaIcEED1Ev@PLT
	movq	-16(%rbp), %rdi                 # 8-byte Reload
	addq	$200, %rdi
	callq	_ZNSt7__cxx1112basic_stringIcSt11char_traitsIcESaIcEED1Ev@PLT
	movq	-16(%rbp), %rdi                 # 8-byte Reload
	addq	$104, %rdi
	callq	_ZN6FamilyD1Ev
	movq	-16(%rbp), %rdi                 # 8-byte Reload
	addq	$48, %rdi
	callq	_ZNSt13unordered_mapINSt7__cxx1112basic_stringIcSt11char_traitsIcESaIcEEEdSt4hashIS5_ESt8equal_toIS5_ESaISt4pairIKS5_dEEED2Ev
	movq	-16(%rbp), %rdi                 # 8-byte Reload
	addq	$8, %rdi
	callq	_ZNSt7__cxx1112basic_stringIcSt11char_traitsIcESaIcEED1Ev@PLT
	addq	$16, %rsp
	popq	%rbp
	.cfi_def_cfa %rsp, 8
	retq
.Lfunc_end17:
	.size	_ZN7StudentD2Ev, .Lfunc_end17-_ZN7StudentD2Ev
	.cfi_endproc
                                        # -- End function
	.globl	_ZN7Student8get_nameB5cxx11Ev   # -- Begin function _ZN7Student8get_nameB5cxx11Ev
	.p2align	4, 0x90
	.type	_ZN7Student8get_nameB5cxx11Ev,@function
_ZN7Student8get_nameB5cxx11Ev:          # @_ZN7Student8get_nameB5cxx11Ev
	.cfi_startproc
# %bb.0:
	pushq	%rbp
	.cfi_def_cfa_offset 16
	.cfi_offset %rbp, -16
	movq	%rsp, %rbp
	.cfi_def_cfa_register %rbp
	subq	$32, %rsp
	movq	%rdi, %rax
	movq	%rax, -24(%rbp)                 # 8-byte Spill
	movq	%rdi, -8(%rbp)
	movq	%rsi, -16(%rbp)
	movq	-16(%rbp), %rsi
	addq	$8, %rsi
	callq	_ZNSt7__cxx1112basic_stringIcSt11char_traitsIcESaIcEEC1ERKS4_@PLT
	movq	-24(%rbp), %rax                 # 8-byte Reload
	addq	$32, %rsp
	popq	%rbp
	.cfi_def_cfa %rsp, 8
	retq
.Lfunc_end18:
	.size	_ZN7Student8get_nameB5cxx11Ev, .Lfunc_end18-_ZN7Student8get_nameB5cxx11Ev
	.cfi_endproc
                                        # -- End function
	.globl	_ZN7Student7get_ageEv           # -- Begin function _ZN7Student7get_ageEv
	.p2align	4, 0x90
	.type	_ZN7Student7get_ageEv,@function
_ZN7Student7get_ageEv:                  # @_ZN7Student7get_ageEv
	.cfi_startproc
# %bb.0:
	pushq	%rbp
	.cfi_def_cfa_offset 16
	.cfi_offset %rbp, -16
	movq	%rsp, %rbp
	.cfi_def_cfa_register %rbp
	movq	%rdi, -8(%rbp)
	movq	-8(%rbp), %rax
	movzwl	40(%rax), %eax
	popq	%rbp
	.cfi_def_cfa %rsp, 8
	retq
.Lfunc_end19:
	.size	_ZN7Student7get_ageEv, .Lfunc_end19-_ZN7Student7get_ageEv
	.cfi_endproc
                                        # -- End function
	.globl	_ZN7Student10get_activeEv       # -- Begin function _ZN7Student10get_activeEv
	.p2align	4, 0x90
	.type	_ZN7Student10get_activeEv,@function
_ZN7Student10get_activeEv:              # @_ZN7Student10get_activeEv
	.cfi_startproc
# %bb.0:
	pushq	%rbp
	.cfi_def_cfa_offset 16
	.cfi_offset %rbp, -16
	movq	%rsp, %rbp
	.cfi_def_cfa_register %rbp
	movq	%rdi, -8(%rbp)
	movq	-8(%rbp), %rax
	movb	272(%rax), %al
	andb	$1, %al
	movzbl	%al, %eax
	popq	%rbp
	.cfi_def_cfa %rsp, 8
	retq
.Lfunc_end20:
	.size	_ZN7Student10get_activeEv, .Lfunc_end20-_ZN7Student10get_activeEv
	.cfi_endproc
                                        # -- End function
	.globl	_ZN7Student17get_datos_familiaEv # -- Begin function _ZN7Student17get_datos_familiaEv
	.p2align	4, 0x90
	.type	_ZN7Student17get_datos_familiaEv,@function
_ZN7Student17get_datos_familiaEv:       # @_ZN7Student17get_datos_familiaEv
	.cfi_startproc
# %bb.0:
	pushq	%rbp
	.cfi_def_cfa_offset 16
	.cfi_offset %rbp, -16
	movq	%rsp, %rbp
	.cfi_def_cfa_register %rbp
	subq	$32, %rsp
	movq	%rdi, %rax
	movq	%rax, -24(%rbp)                 # 8-byte Spill
	movq	%rdi, -8(%rbp)
	movq	%rsi, -16(%rbp)
	movq	-16(%rbp), %rsi
	addq	$104, %rsi
	callq	_ZN6FamilyC2ERKS_
	movq	-24(%rbp), %rax                 # 8-byte Reload
	addq	$32, %rsp
	popq	%rbp
	.cfi_def_cfa %rsp, 8
	retq
.Lfunc_end21:
	.size	_ZN7Student17get_datos_familiaEv, .Lfunc_end21-_ZN7Student17get_datos_familiaEv
	.cfi_endproc
                                        # -- End function
	.globl	_ZN7Student18get_calificacionesB5cxx11Ev # -- Begin function _ZN7Student18get_calificacionesB5cxx11Ev
	.p2align	4, 0x90
	.type	_ZN7Student18get_calificacionesB5cxx11Ev,@function
_ZN7Student18get_calificacionesB5cxx11Ev: # @_ZN7Student18get_calificacionesB5cxx11Ev
	.cfi_startproc
# %bb.0:
	pushq	%rbp
	.cfi_def_cfa_offset 16
	.cfi_offset %rbp, -16
	movq	%rsp, %rbp
	.cfi_def_cfa_register %rbp
	subq	$32, %rsp
	movq	%rdi, %rax
	movq	%rax, -24(%rbp)                 # 8-byte Spill
	movq	%rdi, -8(%rbp)
	movq	%rsi, -16(%rbp)
	movq	-16(%rbp), %rsi
	addq	$48, %rsi
	callq	_ZNSt13unordered_mapINSt7__cxx1112basic_stringIcSt11char_traitsIcESaIcEEEdSt4hashIS5_ESt8equal_toIS5_ESaISt4pairIKS5_dEEEC2ERKSE_
	movq	-24(%rbp), %rax                 # 8-byte Reload
	addq	$32, %rsp
	popq	%rbp
	.cfi_def_cfa %rsp, 8
	retq
.Lfunc_end22:
	.size	_ZN7Student18get_calificacionesB5cxx11Ev, .Lfunc_end22-_ZN7Student18get_calificacionesB5cxx11Ev
	.cfi_endproc
                                        # -- End function
	.section	.text._ZNSt13unordered_mapINSt7__cxx1112basic_stringIcSt11char_traitsIcESaIcEEEdSt4hashIS5_ESt8equal_toIS5_ESaISt4pairIKS5_dEEEC2ERKSE_,"axG",@progbits,_ZNSt13unordered_mapINSt7__cxx1112basic_stringIcSt11char_traitsIcESaIcEEEdSt4hashIS5_ESt8equal_toIS5_ESaISt4pairIKS5_dEEEC2ERKSE_,comdat
	.weak	_ZNSt13unordered_mapINSt7__cxx1112basic_stringIcSt11char_traitsIcESaIcEEEdSt4hashIS5_ESt8equal_toIS5_ESaISt4pairIKS5_dEEEC2ERKSE_ # -- Begin function _ZNSt13unordered_mapINSt7__cxx1112basic_stringIcSt11char_traitsIcESaIcEEEdSt4hashIS5_ESt8equal_toIS5_ESaISt4pairIKS5_dEEEC2ERKSE_
	.p2align	4, 0x90
	.type	_ZNSt13unordered_mapINSt7__cxx1112basic_stringIcSt11char_traitsIcESaIcEEEdSt4hashIS5_ESt8equal_toIS5_ESaISt4pairIKS5_dEEEC2ERKSE_,@function
_ZNSt13unordered_mapINSt7__cxx1112basic_stringIcSt11char_traitsIcESaIcEEEdSt4hashIS5_ESt8equal_toIS5_ESaISt4pairIKS5_dEEEC2ERKSE_: # @_ZNSt13unordered_mapINSt7__cxx1112basic_stringIcSt11char_traitsIcESaIcEEEdSt4hashIS5_ESt8equal_toIS5_ESaISt4pairIKS5_dEEEC2ERKSE_
	.cfi_startproc
# %bb.0:
	pushq	%rbp
	.cfi_def_cfa_offset 16
	.cfi_offset %rbp, -16
	movq	%rsp, %rbp
	.cfi_def_cfa_register %rbp
	subq	$16, %rsp
	movq	%rdi, -8(%rbp)
	movq	%rsi, -16(%rbp)
	movq	-8(%rbp), %rdi
	movq	-16(%rbp), %rsi
	callq	_ZNSt10_HashtableINSt7__cxx1112basic_stringIcSt11char_traitsIcESaIcEEESt4pairIKS5_dESaIS8_ENSt8__detail10_Select1stESt8equal_toIS5_ESt4hashIS5_ENSA_18_Mod_range_hashingENSA_20_Default_ranged_hashENSA_20_Prime_rehash_policyENSA_17_Hashtable_traitsILb1ELb0ELb1EEEEC2ERKSL_
	addq	$16, %rsp
	popq	%rbp
	.cfi_def_cfa %rsp, 8
	retq
.Lfunc_end23:
	.size	_ZNSt13unordered_mapINSt7__cxx1112basic_stringIcSt11char_traitsIcESaIcEEEdSt4hashIS5_ESt8equal_toIS5_ESaISt4pairIKS5_dEEEC2ERKSE_, .Lfunc_end23-_ZNSt13unordered_mapINSt7__cxx1112basic_stringIcSt11char_traitsIcESaIcEEEdSt4hashIS5_ESt8equal_toIS5_ESaISt4pairIKS5_dEEEC2ERKSE_
	.cfi_endproc
                                        # -- End function
	.text
	.globl	_ZN7Student9get_groupB5cxx11Ev  # -- Begin function _ZN7Student9get_groupB5cxx11Ev
	.p2align	4, 0x90
	.type	_ZN7Student9get_groupB5cxx11Ev,@function
_ZN7Student9get_groupB5cxx11Ev:         # @_ZN7Student9get_groupB5cxx11Ev
	.cfi_startproc
# %bb.0:
	pushq	%rbp
	.cfi_def_cfa_offset 16
	.cfi_offset %rbp, -16
	movq	%rsp, %rbp
	.cfi_def_cfa_register %rbp
	subq	$32, %rsp
	movq	%rdi, %rax
	movq	%rax, -24(%rbp)                 # 8-byte Spill
	movq	%rdi, -8(%rbp)
	movq	%rsi, -16(%rbp)
	movq	-16(%rbp), %rsi
	addq	$200, %rsi
	callq	_ZNSt7__cxx1112basic_stringIcSt11char_traitsIcESaIcEEC1ERKS4_@PLT
	movq	-24(%rbp), %rax                 # 8-byte Reload
	addq	$32, %rsp
	popq	%rbp
	.cfi_def_cfa %rsp, 8
	retq
.Lfunc_end24:
	.size	_ZN7Student9get_groupB5cxx11Ev, .Lfunc_end24-_ZN7Student9get_groupB5cxx11Ev
	.cfi_endproc
                                        # -- End function
	.globl	_ZN7Student12get_promedioEv     # -- Begin function _ZN7Student12get_promedioEv
	.p2align	4, 0x90
	.type	_ZN7Student12get_promedioEv,@function
_ZN7Student12get_promedioEv:            # @_ZN7Student12get_promedioEv
	.cfi_startproc
# %bb.0:
	pushq	%rbp
	.cfi_def_cfa_offset 16
	.cfi_offset %rbp, -16
	movq	%rsp, %rbp
	.cfi_def_cfa_register %rbp
	movq	%rdi, -8(%rbp)
	movq	-8(%rbp), %rax
	movsd	232(%rax), %xmm0                # xmm0 = mem[0],zero
	popq	%rbp
	.cfi_def_cfa %rsp, 8
	retq
.Lfunc_end25:
	.size	_ZN7Student12get_promedioEv, .Lfunc_end25-_ZN7Student12get_promedioEv
	.cfi_endproc
                                        # -- End function
	.globl	_ZN7Student11get_leyendaB5cxx11Ev # -- Begin function _ZN7Student11get_leyendaB5cxx11Ev
	.p2align	4, 0x90
	.type	_ZN7Student11get_leyendaB5cxx11Ev,@function
_ZN7Student11get_leyendaB5cxx11Ev:      # @_ZN7Student11get_leyendaB5cxx11Ev
	.cfi_startproc
# %bb.0:
	pushq	%rbp
	.cfi_def_cfa_offset 16
	.cfi_offset %rbp, -16
	movq	%rsp, %rbp
	.cfi_def_cfa_register %rbp
	subq	$32, %rsp
	movq	%rdi, %rax
	movq	%rax, -24(%rbp)                 # 8-byte Spill
	movq	%rdi, -8(%rbp)
	movq	%rsi, -16(%rbp)
	movq	-16(%rbp), %rsi
	addq	$240, %rsi
	callq	_ZNSt7__cxx1112basic_stringIcSt11char_traitsIcESaIcEEC1ERKS4_@PLT
	movq	-24(%rbp), %rax                 # 8-byte Reload
	addq	$32, %rsp
	popq	%rbp
	.cfi_def_cfa %rsp, 8
	retq
.Lfunc_end26:
	.size	_ZN7Student11get_leyendaB5cxx11Ev, .Lfunc_end26-_ZN7Student11get_leyendaB5cxx11Ev
	.cfi_endproc
                                        # -- End function
	.section	.text._ZNSt13unordered_mapINSt7__cxx1112basic_stringIcSt11char_traitsIcESaIcEEEdSt4hashIS5_ESt8equal_toIS5_ESaISt4pairIKS5_dEEE5beginEv,"axG",@progbits,_ZNSt13unordered_mapINSt7__cxx1112basic_stringIcSt11char_traitsIcESaIcEEEdSt4hashIS5_ESt8equal_toIS5_ESaISt4pairIKS5_dEEE5beginEv,comdat
	.weak	_ZNSt13unordered_mapINSt7__cxx1112basic_stringIcSt11char_traitsIcESaIcEEEdSt4hashIS5_ESt8equal_toIS5_ESaISt4pairIKS5_dEEE5beginEv # -- Begin function _ZNSt13unordered_mapINSt7__cxx1112basic_stringIcSt11char_traitsIcESaIcEEEdSt4hashIS5_ESt8equal_toIS5_ESaISt4pairIKS5_dEEE5beginEv
	.p2align	4, 0x90
	.type	_ZNSt13unordered_mapINSt7__cxx1112basic_stringIcSt11char_traitsIcESaIcEEEdSt4hashIS5_ESt8equal_toIS5_ESaISt4pairIKS5_dEEE5beginEv,@function
_ZNSt13unordered_mapINSt7__cxx1112basic_stringIcSt11char_traitsIcESaIcEEEdSt4hashIS5_ESt8equal_toIS5_ESaISt4pairIKS5_dEEE5beginEv: # @_ZNSt13unordered_mapINSt7__cxx1112basic_stringIcSt11char_traitsIcESaIcEEEdSt4hashIS5_ESt8equal_toIS5_ESaISt4pairIKS5_dEEE5beginEv
	.cfi_startproc
# %bb.0:
	pushq	%rbp
	.cfi_def_cfa_offset 16
	.cfi_offset %rbp, -16
	movq	%rsp, %rbp
	.cfi_def_cfa_register %rbp
	subq	$16, %rsp
	movq	%rdi, -16(%rbp)
	movq	-16(%rbp), %rdi
	callq	_ZNSt10_HashtableINSt7__cxx1112basic_stringIcSt11char_traitsIcESaIcEEESt4pairIKS5_dESaIS8_ENSt8__detail10_Select1stESt8equal_toIS5_ESt4hashIS5_ENSA_18_Mod_range_hashingENSA_20_Default_ranged_hashENSA_20_Prime_rehash_policyENSA_17_Hashtable_traitsILb1ELb0ELb1EEEE5beginEv
	movq	%rax, -8(%rbp)
	movq	-8(%rbp), %rax
	addq	$16, %rsp
	popq	%rbp
	.cfi_def_cfa %rsp, 8
	retq
.Lfunc_end27:
	.size	_ZNSt13unordered_mapINSt7__cxx1112basic_stringIcSt11char_traitsIcESaIcEEEdSt4hashIS5_ESt8equal_toIS5_ESaISt4pairIKS5_dEEE5beginEv, .Lfunc_end27-_ZNSt13unordered_mapINSt7__cxx1112basic_stringIcSt11char_traitsIcESaIcEEEdSt4hashIS5_ESt8equal_toIS5_ESaISt4pairIKS5_dEEE5beginEv
	.cfi_endproc
                                        # -- End function
	.section	.text._ZNSt13unordered_mapINSt7__cxx1112basic_stringIcSt11char_traitsIcESaIcEEEdSt4hashIS5_ESt8equal_toIS5_ESaISt4pairIKS5_dEEE3endEv,"axG",@progbits,_ZNSt13unordered_mapINSt7__cxx1112basic_stringIcSt11char_traitsIcESaIcEEEdSt4hashIS5_ESt8equal_toIS5_ESaISt4pairIKS5_dEEE3endEv,comdat
	.weak	_ZNSt13unordered_mapINSt7__cxx1112basic_stringIcSt11char_traitsIcESaIcEEEdSt4hashIS5_ESt8equal_toIS5_ESaISt4pairIKS5_dEEE3endEv # -- Begin function _ZNSt13unordered_mapINSt7__cxx1112basic_stringIcSt11char_traitsIcESaIcEEEdSt4hashIS5_ESt8equal_toIS5_ESaISt4pairIKS5_dEEE3endEv
	.p2align	4, 0x90
	.type	_ZNSt13unordered_mapINSt7__cxx1112basic_stringIcSt11char_traitsIcESaIcEEEdSt4hashIS5_ESt8equal_toIS5_ESaISt4pairIKS5_dEEE3endEv,@function
_ZNSt13unordered_mapINSt7__cxx1112basic_stringIcSt11char_traitsIcESaIcEEEdSt4hashIS5_ESt8equal_toIS5_ESaISt4pairIKS5_dEEE3endEv: # @_ZNSt13unordered_mapINSt7__cxx1112basic_stringIcSt11char_traitsIcESaIcEEEdSt4hashIS5_ESt8equal_toIS5_ESaISt4pairIKS5_dEEE3endEv
	.cfi_startproc
# %bb.0:
	pushq	%rbp
	.cfi_def_cfa_offset 16
	.cfi_offset %rbp, -16
	movq	%rsp, %rbp
	.cfi_def_cfa_register %rbp
	subq	$16, %rsp
	movq	%rdi, -16(%rbp)
	movq	-16(%rbp), %rdi
	callq	_ZNSt10_HashtableINSt7__cxx1112basic_stringIcSt11char_traitsIcESaIcEEESt4pairIKS5_dESaIS8_ENSt8__detail10_Select1stESt8equal_toIS5_ESt4hashIS5_ENSA_18_Mod_range_hashingENSA_20_Default_ranged_hashENSA_20_Prime_rehash_policyENSA_17_Hashtable_traitsILb1ELb0ELb1EEEE3endEv
	movq	%rax, -8(%rbp)
	movq	-8(%rbp), %rax
	addq	$16, %rsp
	popq	%rbp
	.cfi_def_cfa %rsp, 8
	retq
.Lfunc_end28:
	.size	_ZNSt13unordered_mapINSt7__cxx1112basic_stringIcSt11char_traitsIcESaIcEEEdSt4hashIS5_ESt8equal_toIS5_ESaISt4pairIKS5_dEEE3endEv, .Lfunc_end28-_ZNSt13unordered_mapINSt7__cxx1112basic_stringIcSt11char_traitsIcESaIcEEEdSt4hashIS5_ESt8equal_toIS5_ESaISt4pairIKS5_dEEE3endEv
	.cfi_endproc
                                        # -- End function
	.section	.text._ZNSt8__detailneERKNS_19_Node_iterator_baseISt4pairIKNSt7__cxx1112basic_stringIcSt11char_traitsIcESaIcEEEdELb1EEESC_,"axG",@progbits,_ZNSt8__detailneERKNS_19_Node_iterator_baseISt4pairIKNSt7__cxx1112basic_stringIcSt11char_traitsIcESaIcEEEdELb1EEESC_,comdat
	.weak	_ZNSt8__detailneERKNS_19_Node_iterator_baseISt4pairIKNSt7__cxx1112basic_stringIcSt11char_traitsIcESaIcEEEdELb1EEESC_ # -- Begin function _ZNSt8__detailneERKNS_19_Node_iterator_baseISt4pairIKNSt7__cxx1112basic_stringIcSt11char_traitsIcESaIcEEEdELb1EEESC_
	.p2align	4, 0x90
	.type	_ZNSt8__detailneERKNS_19_Node_iterator_baseISt4pairIKNSt7__cxx1112basic_stringIcSt11char_traitsIcESaIcEEEdELb1EEESC_,@function
_ZNSt8__detailneERKNS_19_Node_iterator_baseISt4pairIKNSt7__cxx1112basic_stringIcSt11char_traitsIcESaIcEEEdELb1EEESC_: # @_ZNSt8__detailneERKNS_19_Node_iterator_baseISt4pairIKNSt7__cxx1112basic_stringIcSt11char_traitsIcESaIcEEEdELb1EEESC_
	.cfi_startproc
# %bb.0:
	pushq	%rbp
	.cfi_def_cfa_offset 16
	.cfi_offset %rbp, -16
	movq	%rsp, %rbp
	.cfi_def_cfa_register %rbp
	movq	%rdi, -8(%rbp)
	movq	%rsi, -16(%rbp)
	movq	-8(%rbp), %rax
	movq	(%rax), %rax
	movq	-16(%rbp), %rcx
	cmpq	(%rcx), %rax
	setne	%al
	andb	$1, %al
	movzbl	%al, %eax
	popq	%rbp
	.cfi_def_cfa %rsp, 8
	retq
.Lfunc_end29:
	.size	_ZNSt8__detailneERKNS_19_Node_iterator_baseISt4pairIKNSt7__cxx1112basic_stringIcSt11char_traitsIcESaIcEEEdELb1EEESC_, .Lfunc_end29-_ZNSt8__detailneERKNS_19_Node_iterator_baseISt4pairIKNSt7__cxx1112basic_stringIcSt11char_traitsIcESaIcEEEdELb1EEESC_
	.cfi_endproc
                                        # -- End function
	.section	.text._ZNKSt8__detail14_Node_iteratorISt4pairIKNSt7__cxx1112basic_stringIcSt11char_traitsIcESaIcEEEdELb0ELb1EEdeEv,"axG",@progbits,_ZNKSt8__detail14_Node_iteratorISt4pairIKNSt7__cxx1112basic_stringIcSt11char_traitsIcESaIcEEEdELb0ELb1EEdeEv,comdat
	.weak	_ZNKSt8__detail14_Node_iteratorISt4pairIKNSt7__cxx1112basic_stringIcSt11char_traitsIcESaIcEEEdELb0ELb1EEdeEv # -- Begin function _ZNKSt8__detail14_Node_iteratorISt4pairIKNSt7__cxx1112basic_stringIcSt11char_traitsIcESaIcEEEdELb0ELb1EEdeEv
	.p2align	4, 0x90
	.type	_ZNKSt8__detail14_Node_iteratorISt4pairIKNSt7__cxx1112basic_stringIcSt11char_traitsIcESaIcEEEdELb0ELb1EEdeEv,@function
_ZNKSt8__detail14_Node_iteratorISt4pairIKNSt7__cxx1112basic_stringIcSt11char_traitsIcESaIcEEEdELb0ELb1EEdeEv: # @_ZNKSt8__detail14_Node_iteratorISt4pairIKNSt7__cxx1112basic_stringIcSt11char_traitsIcESaIcEEEdELb0ELb1EEdeEv
	.cfi_startproc
# %bb.0:
	pushq	%rbp
	.cfi_def_cfa_offset 16
	.cfi_offset %rbp, -16
	movq	%rsp, %rbp
	.cfi_def_cfa_register %rbp
	subq	$32, %rsp
	movq	%rdi, -24(%rbp)
	movq	-24(%rbp), %rax
	movq	(%rax), %rax
	addq	$8, %rax
	movq	%rax, -16(%rbp)
	movq	-16(%rbp), %rax
	movq	%rax, -8(%rbp)
	movq	-8(%rbp), %rdi
	callq	_ZN9__gnu_cxx16__aligned_bufferISt4pairIKNSt7__cxx1112basic_stringIcSt11char_traitsIcESaIcEEEdEE6_M_ptrEv
	addq	$32, %rsp
	popq	%rbp
	.cfi_def_cfa %rsp, 8
	retq
.Lfunc_end30:
	.size	_ZNKSt8__detail14_Node_iteratorISt4pairIKNSt7__cxx1112basic_stringIcSt11char_traitsIcESaIcEEEdELb0ELb1EEdeEv, .Lfunc_end30-_ZNKSt8__detail14_Node_iteratorISt4pairIKNSt7__cxx1112basic_stringIcSt11char_traitsIcESaIcEEEdELb0ELb1EEdeEv
	.cfi_endproc
                                        # -- End function
	.section	.text._ZNSt4pairIKNSt7__cxx1112basic_stringIcSt11char_traitsIcESaIcEEEdEC2ERKS7_,"axG",@progbits,_ZNSt4pairIKNSt7__cxx1112basic_stringIcSt11char_traitsIcESaIcEEEdEC2ERKS7_,comdat
	.weak	_ZNSt4pairIKNSt7__cxx1112basic_stringIcSt11char_traitsIcESaIcEEEdEC2ERKS7_ # -- Begin function _ZNSt4pairIKNSt7__cxx1112basic_stringIcSt11char_traitsIcESaIcEEEdEC2ERKS7_
	.p2align	4, 0x90
	.type	_ZNSt4pairIKNSt7__cxx1112basic_stringIcSt11char_traitsIcESaIcEEEdEC2ERKS7_,@function
_ZNSt4pairIKNSt7__cxx1112basic_stringIcSt11char_traitsIcESaIcEEEdEC2ERKS7_: # @_ZNSt4pairIKNSt7__cxx1112basic_stringIcSt11char_traitsIcESaIcEEEdEC2ERKS7_
	.cfi_startproc
# %bb.0:
	pushq	%rbp
	.cfi_def_cfa_offset 16
	.cfi_offset %rbp, -16
	movq	%rsp, %rbp
	.cfi_def_cfa_register %rbp
	subq	$32, %rsp
	movq	%rdi, -8(%rbp)
	movq	%rsi, -16(%rbp)
	movq	-8(%rbp), %rdi
	movq	%rdi, -24(%rbp)                 # 8-byte Spill
	movq	-16(%rbp), %rsi
	callq	_ZNSt7__cxx1112basic_stringIcSt11char_traitsIcESaIcEEC1ERKS4_@PLT
	movq	-24(%rbp), %rax                 # 8-byte Reload
	movq	-16(%rbp), %rcx
	movsd	32(%rcx), %xmm0                 # xmm0 = mem[0],zero
	movsd	%xmm0, 32(%rax)
	addq	$32, %rsp
	popq	%rbp
	.cfi_def_cfa %rsp, 8
	retq
.Lfunc_end31:
	.size	_ZNSt4pairIKNSt7__cxx1112basic_stringIcSt11char_traitsIcESaIcEEEdEC2ERKS7_, .Lfunc_end31-_ZNSt4pairIKNSt7__cxx1112basic_stringIcSt11char_traitsIcESaIcEEEdEC2ERKS7_
	.cfi_endproc
                                        # -- End function
	.section	.text._ZNSt4pairIKNSt7__cxx1112basic_stringIcSt11char_traitsIcESaIcEEEdED2Ev,"axG",@progbits,_ZNSt4pairIKNSt7__cxx1112basic_stringIcSt11char_traitsIcESaIcEEEdED2Ev,comdat
	.weak	_ZNSt4pairIKNSt7__cxx1112basic_stringIcSt11char_traitsIcESaIcEEEdED2Ev # -- Begin function _ZNSt4pairIKNSt7__cxx1112basic_stringIcSt11char_traitsIcESaIcEEEdED2Ev
	.p2align	4, 0x90
	.type	_ZNSt4pairIKNSt7__cxx1112basic_stringIcSt11char_traitsIcESaIcEEEdED2Ev,@function
_ZNSt4pairIKNSt7__cxx1112basic_stringIcSt11char_traitsIcESaIcEEEdED2Ev: # @_ZNSt4pairIKNSt7__cxx1112basic_stringIcSt11char_traitsIcESaIcEEEdED2Ev
	.cfi_startproc
# %bb.0:
	pushq	%rbp
	.cfi_def_cfa_offset 16
	.cfi_offset %rbp, -16
	movq	%rsp, %rbp
	.cfi_def_cfa_register %rbp
	subq	$16, %rsp
	movq	%rdi, -8(%rbp)
	movq	-8(%rbp), %rdi
	callq	_ZNSt7__cxx1112basic_stringIcSt11char_traitsIcESaIcEED1Ev@PLT
	addq	$16, %rsp
	popq	%rbp
	.cfi_def_cfa %rsp, 8
	retq
.Lfunc_end32:
	.size	_ZNSt4pairIKNSt7__cxx1112basic_stringIcSt11char_traitsIcESaIcEEEdED2Ev, .Lfunc_end32-_ZNSt4pairIKNSt7__cxx1112basic_stringIcSt11char_traitsIcESaIcEEEdED2Ev
	.cfi_endproc
                                        # -- End function
	.section	.text._ZNSt8__detail14_Node_iteratorISt4pairIKNSt7__cxx1112basic_stringIcSt11char_traitsIcESaIcEEEdELb0ELb1EEppEv,"axG",@progbits,_ZNSt8__detail14_Node_iteratorISt4pairIKNSt7__cxx1112basic_stringIcSt11char_traitsIcESaIcEEEdELb0ELb1EEppEv,comdat
	.weak	_ZNSt8__detail14_Node_iteratorISt4pairIKNSt7__cxx1112basic_stringIcSt11char_traitsIcESaIcEEEdELb0ELb1EEppEv # -- Begin function _ZNSt8__detail14_Node_iteratorISt4pairIKNSt7__cxx1112basic_stringIcSt11char_traitsIcESaIcEEEdELb0ELb1EEppEv
	.p2align	4, 0x90
	.type	_ZNSt8__detail14_Node_iteratorISt4pairIKNSt7__cxx1112basic_stringIcSt11char_traitsIcESaIcEEEdELb0ELb1EEppEv,@function
_ZNSt8__detail14_Node_iteratorISt4pairIKNSt7__cxx1112basic_stringIcSt11char_traitsIcESaIcEEEdELb0ELb1EEppEv: # @_ZNSt8__detail14_Node_iteratorISt4pairIKNSt7__cxx1112basic_stringIcSt11char_traitsIcESaIcEEEdELb0ELb1EEppEv
	.cfi_startproc
# %bb.0:
	pushq	%rbp
	.cfi_def_cfa_offset 16
	.cfi_offset %rbp, -16
	movq	%rsp, %rbp
	.cfi_def_cfa_register %rbp
	subq	$16, %rsp
	movq	%rdi, -8(%rbp)
	movq	-8(%rbp), %rdi
	movq	%rdi, -16(%rbp)                 # 8-byte Spill
	callq	_ZNSt8__detail19_Node_iterator_baseISt4pairIKNSt7__cxx1112basic_stringIcSt11char_traitsIcESaIcEEEdELb1EE7_M_incrEv
	movq	-16(%rbp), %rax                 # 8-byte Reload
	addq	$16, %rsp
	popq	%rbp
	.cfi_def_cfa %rsp, 8
	retq
.Lfunc_end33:
	.size	_ZNSt8__detail14_Node_iteratorISt4pairIKNSt7__cxx1112basic_stringIcSt11char_traitsIcESaIcEEEdELb0ELb1EEppEv, .Lfunc_end33-_ZNSt8__detail14_Node_iteratorISt4pairIKNSt7__cxx1112basic_stringIcSt11char_traitsIcESaIcEEEdELb0ELb1EEppEv
	.cfi_endproc
                                        # -- End function
	.text
	.globl	_ZN7Student6set_idEi            # -- Begin function _ZN7Student6set_idEi
	.p2align	4, 0x90
	.type	_ZN7Student6set_idEi,@function
_ZN7Student6set_idEi:                   # @_ZN7Student6set_idEi
	.cfi_startproc
# %bb.0:
	pushq	%rbp
	.cfi_def_cfa_offset 16
	.cfi_offset %rbp, -16
	movq	%rsp, %rbp
	.cfi_def_cfa_register %rbp
	movq	%rdi, -8(%rbp)
	movl	%esi, -12(%rbp)
	movq	-8(%rbp), %rax
	movl	-12(%rbp), %ecx
	movl	%ecx, (%rax)
	popq	%rbp
	.cfi_def_cfa %rsp, 8
	retq
.Lfunc_end34:
	.size	_ZN7Student6set_idEi, .Lfunc_end34-_ZN7Student6set_idEi
	.cfi_endproc
                                        # -- End function
	.globl	_ZN7Student8set_nameEPKc        # -- Begin function _ZN7Student8set_nameEPKc
	.p2align	4, 0x90
	.type	_ZN7Student8set_nameEPKc,@function
_ZN7Student8set_nameEPKc:               # @_ZN7Student8set_nameEPKc
	.cfi_startproc
# %bb.0:
	pushq	%rbp
	.cfi_def_cfa_offset 16
	.cfi_offset %rbp, -16
	movq	%rsp, %rbp
	.cfi_def_cfa_register %rbp
	subq	$16, %rsp
	movq	%rdi, -8(%rbp)
	movq	%rsi, -16(%rbp)
	movq	-8(%rbp), %rdi
	movq	-16(%rbp), %rsi
	addq	$8, %rdi
	callq	_ZNSt7__cxx1112basic_stringIcSt11char_traitsIcESaIcEEaSEPKc@PLT
	addq	$16, %rsp
	popq	%rbp
	.cfi_def_cfa %rsp, 8
	retq
.Lfunc_end35:
	.size	_ZN7Student8set_nameEPKc, .Lfunc_end35-_ZN7Student8set_nameEPKc
	.cfi_endproc
                                        # -- End function
	.globl	_ZN7Student7set_ageEi           # -- Begin function _ZN7Student7set_ageEi
	.p2align	4, 0x90
	.type	_ZN7Student7set_ageEi,@function
_ZN7Student7set_ageEi:                  # @_ZN7Student7set_ageEi
	.cfi_startproc
# %bb.0:
	pushq	%rbp
	.cfi_def_cfa_offset 16
	.cfi_offset %rbp, -16
	movq	%rsp, %rbp
	.cfi_def_cfa_register %rbp
	movq	%rdi, -8(%rbp)
	movl	%esi, -12(%rbp)
	movq	-8(%rbp), %rax
	movl	-12(%rbp), %ecx
                                        # kill: def $cx killed $cx killed $ecx
	movw	%cx, 40(%rax)
	popq	%rbp
	.cfi_def_cfa %rsp, 8
	retq
.Lfunc_end36:
	.size	_ZN7Student7set_ageEi, .Lfunc_end36-_ZN7Student7set_ageEi
	.cfi_endproc
                                        # -- End function
	.globl	_ZN7Student9set_califESt13unordered_mapINSt7__cxx1112basic_stringIcSt11char_traitsIcESaIcEEEdSt4hashIS6_ESt8equal_toIS6_ESaISt4pairIKS6_dEEE # -- Begin function _ZN7Student9set_califESt13unordered_mapINSt7__cxx1112basic_stringIcSt11char_traitsIcESaIcEEEdSt4hashIS6_ESt8equal_toIS6_ESaISt4pairIKS6_dEEE
	.p2align	4, 0x90
	.type	_ZN7Student9set_califESt13unordered_mapINSt7__cxx1112basic_stringIcSt11char_traitsIcESaIcEEEdSt4hashIS6_ESt8equal_toIS6_ESaISt4pairIKS6_dEEE,@function
_ZN7Student9set_califESt13unordered_mapINSt7__cxx1112basic_stringIcSt11char_traitsIcESaIcEEEdSt4hashIS6_ESt8equal_toIS6_ESaISt4pairIKS6_dEEE: # @_ZN7Student9set_califESt13unordered_mapINSt7__cxx1112basic_stringIcSt11char_traitsIcESaIcEEEdSt4hashIS6_ESt8equal_toIS6_ESaISt4pairIKS6_dEEE
	.cfi_startproc
# %bb.0:
	pushq	%rbp
	.cfi_def_cfa_offset 16
	.cfi_offset %rbp, -16
	movq	%rsp, %rbp
	.cfi_def_cfa_register %rbp
	subq	$16, %rsp
	movq	%rdi, -8(%rbp)
	movq	%rsi, -16(%rbp)
	movq	-8(%rbp), %rdi
	addq	$48, %rdi
	callq	_ZNSt13unordered_mapINSt7__cxx1112basic_stringIcSt11char_traitsIcESaIcEEEdSt4hashIS5_ESt8equal_toIS5_ESaISt4pairIKS5_dEEEaSERKSE_
	addq	$16, %rsp
	popq	%rbp
	.cfi_def_cfa %rsp, 8
	retq
.Lfunc_end37:
	.size	_ZN7Student9set_califESt13unordered_mapINSt7__cxx1112basic_stringIcSt11char_traitsIcESaIcEEEdSt4hashIS6_ESt8equal_toIS6_ESaISt4pairIKS6_dEEE, .Lfunc_end37-_ZN7Student9set_califESt13unordered_mapINSt7__cxx1112basic_stringIcSt11char_traitsIcESaIcEEEdSt4hashIS6_ESt8equal_toIS6_ESaISt4pairIKS6_dEEE
	.cfi_endproc
                                        # -- End function
	.globl	_ZN7Student15set_family_dataE6Family # -- Begin function _ZN7Student15set_family_dataE6Family
	.p2align	4, 0x90
	.type	_ZN7Student15set_family_dataE6Family,@function
_ZN7Student15set_family_dataE6Family:   # @_ZN7Student15set_family_dataE6Family
	.cfi_startproc
# %bb.0:
	pushq	%rbp
	.cfi_def_cfa_offset 16
	.cfi_offset %rbp, -16
	movq	%rsp, %rbp
	.cfi_def_cfa_register %rbp
	subq	$16, %rsp
	movq	%rdi, -8(%rbp)
	movq	%rsi, -16(%rbp)
	movq	-8(%rbp), %rdi
	addq	$104, %rdi
	callq	_ZN6FamilyaSERKS_
	addq	$16, %rsp
	popq	%rbp
	.cfi_def_cfa %rsp, 8
	retq
.Lfunc_end38:
	.size	_ZN7Student15set_family_dataE6Family, .Lfunc_end38-_ZN7Student15set_family_dataE6Family
	.cfi_endproc
                                        # -- End function
	.section	.text._ZN6FamilyaSERKS_,"axG",@progbits,_ZN6FamilyaSERKS_,comdat
	.weak	_ZN6FamilyaSERKS_               # -- Begin function _ZN6FamilyaSERKS_
	.p2align	4, 0x90
	.type	_ZN6FamilyaSERKS_,@function
_ZN6FamilyaSERKS_:                      # @_ZN6FamilyaSERKS_
	.cfi_startproc
# %bb.0:
	pushq	%rbp
	.cfi_def_cfa_offset 16
	.cfi_offset %rbp, -16
	movq	%rsp, %rbp
	.cfi_def_cfa_register %rbp
	subq	$32, %rsp
	movq	%rdi, -8(%rbp)
	movq	%rsi, -16(%rbp)
	movq	-8(%rbp), %rdi
	movq	%rdi, -24(%rbp)                 # 8-byte Spill
	movq	-16(%rbp), %rsi
	callq	_ZNSt7__cxx1112basic_stringIcSt11char_traitsIcESaIcEEaSERKS4_@PLT
	movq	-24(%rbp), %rdi                 # 8-byte Reload
	addq	$32, %rdi
	movq	-16(%rbp), %rsi
	addq	$32, %rsi
	callq	_ZNSt7__cxx1112basic_stringIcSt11char_traitsIcESaIcEEaSERKS4_@PLT
	movq	-24(%rbp), %rdi                 # 8-byte Reload
	addq	$64, %rdi
	movq	-16(%rbp), %rsi
	addq	$64, %rsi
	callq	_ZNSt7__cxx1112basic_stringIcSt11char_traitsIcESaIcEEaSERKS4_@PLT
                                        # kill: def $rcx killed $rax
	movq	-24(%rbp), %rax                 # 8-byte Reload
	addq	$32, %rsp
	popq	%rbp
	.cfi_def_cfa %rsp, 8
	retq
.Lfunc_end39:
	.size	_ZN6FamilyaSERKS_, .Lfunc_end39-_ZN6FamilyaSERKS_
	.cfi_endproc
                                        # -- End function
	.text
	.globl	_ZN7Student9set_grupoEPKc       # -- Begin function _ZN7Student9set_grupoEPKc
	.p2align	4, 0x90
	.type	_ZN7Student9set_grupoEPKc,@function
_ZN7Student9set_grupoEPKc:              # @_ZN7Student9set_grupoEPKc
	.cfi_startproc
# %bb.0:
	pushq	%rbp
	.cfi_def_cfa_offset 16
	.cfi_offset %rbp, -16
	movq	%rsp, %rbp
	.cfi_def_cfa_register %rbp
	subq	$16, %rsp
	movq	%rdi, -8(%rbp)
	movq	%rsi, -16(%rbp)
	movq	-8(%rbp), %rdi
	movq	-16(%rbp), %rsi
	addq	$200, %rdi
	callq	_ZNSt7__cxx1112basic_stringIcSt11char_traitsIcESaIcEEaSEPKc@PLT
	addq	$16, %rsp
	popq	%rbp
	.cfi_def_cfa %rsp, 8
	retq
.Lfunc_end40:
	.size	_ZN7Student9set_grupoEPKc, .Lfunc_end40-_ZN7Student9set_grupoEPKc
	.cfi_endproc
                                        # -- End function
	.globl	_ZN7Student14set_promedio_nEd   # -- Begin function _ZN7Student14set_promedio_nEd
	.p2align	4, 0x90
	.type	_ZN7Student14set_promedio_nEd,@function
_ZN7Student14set_promedio_nEd:          # @_ZN7Student14set_promedio_nEd
	.cfi_startproc
# %bb.0:
	pushq	%rbp
	.cfi_def_cfa_offset 16
	.cfi_offset %rbp, -16
	movq	%rsp, %rbp
	.cfi_def_cfa_register %rbp
	movq	%rdi, -8(%rbp)
	movsd	%xmm0, -16(%rbp)
	movq	-8(%rbp), %rax
	movsd	-16(%rbp), %xmm0                # xmm0 = mem[0],zero
	movsd	%xmm0, 232(%rax)
	popq	%rbp
	.cfi_def_cfa %rsp, 8
	retq
.Lfunc_end41:
	.size	_ZN7Student14set_promedio_nEd, .Lfunc_end41-_ZN7Student14set_promedio_nEd
	.cfi_endproc
                                        # -- End function
	.globl	_ZN7Student11set_leyendaEPKc    # -- Begin function _ZN7Student11set_leyendaEPKc
	.p2align	4, 0x90
	.type	_ZN7Student11set_leyendaEPKc,@function
_ZN7Student11set_leyendaEPKc:           # @_ZN7Student11set_leyendaEPKc
	.cfi_startproc
# %bb.0:
	pushq	%rbp
	.cfi_def_cfa_offset 16
	.cfi_offset %rbp, -16
	movq	%rsp, %rbp
	.cfi_def_cfa_register %rbp
	subq	$16, %rsp
	movq	%rdi, -8(%rbp)
	movq	%rsi, -16(%rbp)
	movq	-8(%rbp), %rdi
	movq	-16(%rbp), %rsi
	addq	$240, %rdi
	callq	_ZNSt7__cxx1112basic_stringIcSt11char_traitsIcESaIcEEaSEPKc@PLT
	addq	$16, %rsp
	popq	%rbp
	.cfi_def_cfa %rsp, 8
	retq
.Lfunc_end42:
	.size	_ZN7Student11set_leyendaEPKc, .Lfunc_end42-_ZN7Student11set_leyendaEPKc
	.cfi_endproc
                                        # -- End function
	.globl	_ZN7Student20print_calificacionesEv # -- Begin function _ZN7Student20print_calificacionesEv
	.p2align	4, 0x90
	.type	_ZN7Student20print_calificacionesEv,@function
_ZN7Student20print_calificacionesEv:    # @_ZN7Student20print_calificacionesEv
.Lfunc_begin4:
	.cfi_startproc
	.cfi_personality 155, DW.ref.__gxx_personality_v0
	.cfi_lsda 27, .Lexception4
# %bb.0:
	pushq	%rbp
	.cfi_def_cfa_offset 16
	.cfi_offset %rbp, -16
	movq	%rsp, %rbp
	.cfi_def_cfa_register %rbp
	subq	$128, %rsp
	movq	%fs:40, %rax
	movq	%rax, -8(%rbp)
	movq	%rdi, -72(%rbp)
	movq	-72(%rbp), %rax
	movq	%rax, -104(%rbp)                # 8-byte Spill
	leaq	.L.str.8(%rip), %rdi
	movb	$0, %al
	callq	printf@PLT
                                        # kill: def $ecx killed $eax
	movq	-104(%rbp), %rax                # 8-byte Reload
	addq	$48, %rax
	movq	%rax, -80(%rbp)
	movq	-80(%rbp), %rdi
	callq	_ZNSt13unordered_mapINSt7__cxx1112basic_stringIcSt11char_traitsIcESaIcEEEdSt4hashIS5_ESt8equal_toIS5_ESaISt4pairIKS5_dEEE5beginEv
	movq	%rax, -56(%rbp)
	movq	-80(%rbp), %rdi
	callq	_ZNSt13unordered_mapINSt7__cxx1112basic_stringIcSt11char_traitsIcESaIcEEEdSt4hashIS5_ESt8equal_toIS5_ESaISt4pairIKS5_dEEE3endEv
	movq	%rax, -64(%rbp)
.LBB43_1:                               # =>This Inner Loop Header: Depth=1
	leaq	-56(%rbp), %rdi
	leaq	-64(%rbp), %rsi
	callq	_ZNSt8__detailneERKNS_19_Node_iterator_baseISt4pairIKNSt7__cxx1112basic_stringIcSt11char_traitsIcESaIcEEEdELb1EEESC_
	testb	$1, %al
	jne	.LBB43_2
	jmp	.LBB43_6
.LBB43_2:                               #   in Loop: Header=BB43_1 Depth=1
	leaq	-56(%rbp), %rdi
	callq	_ZNKSt8__detail14_Node_iteratorISt4pairIKNSt7__cxx1112basic_stringIcSt11char_traitsIcESaIcEEEdELb0ELb1EEdeEv
	movq	%rax, %rsi
	leaq	-48(%rbp), %rdi
	movq	%rdi, -112(%rbp)                # 8-byte Spill
	callq	_ZNSt4pairIKNSt7__cxx1112basic_stringIcSt11char_traitsIcESaIcEEEdEC2ERKS7_
	movq	-112(%rbp), %rdi                # 8-byte Reload
	callq	_ZNKSt7__cxx1112basic_stringIcSt11char_traitsIcESaIcEE5c_strEv@PLT
	movq	%rax, %rsi
	movsd	-16(%rbp), %xmm0                # xmm0 = mem[0],zero
.Ltmp33:
	leaq	.L.str.9(%rip), %rdi
	movb	$1, %al
	callq	printf@PLT
.Ltmp34:
	jmp	.LBB43_3
.LBB43_3:                               #   in Loop: Header=BB43_1 Depth=1
	leaq	-48(%rbp), %rdi
	callq	_ZNSt4pairIKNSt7__cxx1112basic_stringIcSt11char_traitsIcESaIcEEEdED2Ev
# %bb.4:                                #   in Loop: Header=BB43_1 Depth=1
	leaq	-56(%rbp), %rdi
	callq	_ZNSt8__detail14_Node_iteratorISt4pairIKNSt7__cxx1112basic_stringIcSt11char_traitsIcESaIcEEEdELb0ELb1EEppEv
	jmp	.LBB43_1
.LBB43_5:
.Ltmp35:
	movq	%rax, %rcx
	movl	%edx, %eax
	movq	%rcx, -88(%rbp)
	movl	%eax, -92(%rbp)
	leaq	-48(%rbp), %rdi
	callq	_ZNSt4pairIKNSt7__cxx1112basic_stringIcSt11char_traitsIcESaIcEEEdED2Ev
	jmp	.LBB43_8
.LBB43_6:
	movq	%fs:40, %rax
	movq	-8(%rbp), %rcx
	cmpq	%rcx, %rax
	jne	.LBB43_10
# %bb.7:
	addq	$128, %rsp
	popq	%rbp
	.cfi_def_cfa %rsp, 8
	retq
.LBB43_8:
	.cfi_def_cfa %rbp, 16
	movq	-88(%rbp), %rax
	movq	%rax, -120(%rbp)                # 8-byte Spill
	movq	%fs:40, %rax
	movq	-8(%rbp), %rcx
	cmpq	%rcx, %rax
	jne	.LBB43_10
# %bb.9:
	movq	-120(%rbp), %rdi                # 8-byte Reload
	callq	_Unwind_Resume@PLT
.LBB43_10:
	callq	__stack_chk_fail@PLT
.Lfunc_end43:
	.size	_ZN7Student20print_calificacionesEv, .Lfunc_end43-_ZN7Student20print_calificacionesEv
	.cfi_endproc
	.section	.gcc_except_table,"a",@progbits
	.p2align	2, 0x0
GCC_except_table43:
.Lexception4:
	.byte	255                             # @LPStart Encoding = omit
	.byte	255                             # @TType Encoding = omit
	.byte	1                               # Call site Encoding = uleb128
	.uleb128 .Lcst_end4-.Lcst_begin4
.Lcst_begin4:
	.uleb128 .Lfunc_begin4-.Lfunc_begin4    # >> Call Site 1 <<
	.uleb128 .Ltmp33-.Lfunc_begin4          #   Call between .Lfunc_begin4 and .Ltmp33
	.byte	0                               #     has no landing pad
	.byte	0                               #   On action: cleanup
	.uleb128 .Ltmp33-.Lfunc_begin4          # >> Call Site 2 <<
	.uleb128 .Ltmp34-.Ltmp33                #   Call between .Ltmp33 and .Ltmp34
	.uleb128 .Ltmp35-.Lfunc_begin4          #     jumps to .Ltmp35
	.byte	0                               #   On action: cleanup
	.uleb128 .Ltmp34-.Lfunc_begin4          # >> Call Site 3 <<
	.uleb128 .Lfunc_end43-.Ltmp34           #   Call between .Ltmp34 and .Lfunc_end43
	.byte	0                               #     has no landing pad
	.byte	0                               #   On action: cleanup
.Lcst_end4:
	.p2align	2, 0x0
                                        # -- End function
	.text
	.globl	_ZN7Student10print_dataEv       # -- Begin function _ZN7Student10print_dataEv
	.p2align	4, 0x90
	.type	_ZN7Student10print_dataEv,@function
_ZN7Student10print_dataEv:              # @_ZN7Student10print_dataEv
	.cfi_startproc
# %bb.0:
	pushq	%rbp
	.cfi_def_cfa_offset 16
	.cfi_offset %rbp, -16
	movq	%rsp, %rbp
	.cfi_def_cfa_register %rbp
	subq	$16, %rsp
	movq	%rdi, -8(%rbp)
	movq	-8(%rbp), %rax
	movq	%rax, -16(%rbp)                 # 8-byte Spill
	leaq	.L.str.10(%rip), %rdi
	movb	$0, %al
	callq	printf@PLT
                                        # kill: def $ecx killed $eax
	movq	-16(%rbp), %rax                 # 8-byte Reload
	movl	(%rax), %esi
	leaq	.L.str.11(%rip), %rdi
	movb	$0, %al
	callq	printf@PLT
	movq	-16(%rbp), %rdi                 # 8-byte Reload
	addq	$8, %rdi
	callq	_ZNKSt7__cxx1112basic_stringIcSt11char_traitsIcESaIcEE5c_strEv@PLT
	movq	%rax, %rsi
	leaq	.L.str.12(%rip), %rdi
	movb	$0, %al
	callq	printf@PLT
                                        # kill: def $ecx killed $eax
	movq	-16(%rbp), %rax                 # 8-byte Reload
	movzwl	40(%rax), %esi
	leaq	.L.str.13(%rip), %rdi
	movb	$0, %al
	callq	printf@PLT
                                        # kill: def $ecx killed $eax
	movq	-16(%rbp), %rax                 # 8-byte Reload
	movsd	232(%rax), %xmm0                # xmm0 = mem[0],zero
	leaq	.L.str.14(%rip), %rdi
	movb	$1, %al
	callq	printf@PLT
	movq	-16(%rbp), %rdi                 # 8-byte Reload
	addq	$240, %rdi
	callq	_ZNKSt7__cxx1112basic_stringIcSt11char_traitsIcESaIcEE5c_strEv@PLT
	movq	%rax, %rsi
	leaq	.L.str.15(%rip), %rdi
	movb	$0, %al
	callq	printf@PLT
	movq	-16(%rbp), %rdi                 # 8-byte Reload
	addq	$104, %rdi
	callq	_ZN6Family10print_dataEv
	movq	-16(%rbp), %rdi                 # 8-byte Reload
	callq	_ZN7Student20print_calificacionesEv
	addq	$16, %rsp
	popq	%rbp
	.cfi_def_cfa %rsp, 8
	retq
.Lfunc_end44:
	.size	_ZN7Student10print_dataEv, .Lfunc_end44-_ZN7Student10print_dataEv
	.cfi_endproc
                                        # -- End function
	.globl	_Z13get_conectionv              # -- Begin function _Z13get_conectionv
	.p2align	4, 0x90
	.type	_Z13get_conectionv,@function
_Z13get_conectionv:                     # @_Z13get_conectionv
.Lfunc_begin5:
	.cfi_startproc
	.cfi_personality 155, DW.ref.__gxx_personality_v0
	.cfi_lsda 27, .Lexception5
# %bb.0:
	pushq	%rbp
	.cfi_def_cfa_offset 16
	.cfi_offset %rbp, -16
	movq	%rsp, %rbp
	.cfi_def_cfa_register %rbp
	subq	$80, %rsp
	movq	%rdi, -56(%rbp)                 # 8-byte Spill
	movq	%rdi, %rax
	movq	%rax, -48(%rbp)                 # 8-byte Spill
	movq	%fs:40, %rax
	movq	%rax, -8(%rbp)
	movq	%rdi, -24(%rbp)
.Ltmp36:
	leaq	.L.str.16(%rip), %rsi
	leaq	-16(%rbp), %rdi
	callq	_ZN3sql9SQLStringC1EPKc@PLT
.Ltmp37:
	jmp	.LBB45_1
.LBB45_1:
	movb	$0, -37(%rbp)
.Ltmp39:
	leaq	-16(%rbp), %rdi
	callq	_ZN3sql13DriverManager13getConnectionERKNS_9SQLStringE@PLT
.Ltmp40:
	movq	%rax, -64(%rbp)                 # 8-byte Spill
	jmp	.LBB45_2
.LBB45_2:
	movq	-64(%rbp), %rsi                 # 8-byte Reload
	movq	-56(%rbp), %rdi                 # 8-byte Reload
	callq	_ZNSt10unique_ptrIN3sql10ConnectionESt14default_deleteIS1_EEC2IS3_vEEPS1_
	movb	$1, -37(%rbp)
	testb	$1, -37(%rbp)
	jne	.LBB45_9
	jmp	.LBB45_8
.LBB45_3:
.Ltmp38:
	movq	%rax, %rcx
	movl	%edx, %eax
	movq	%rcx, -32(%rbp)
	movl	%eax, -36(%rbp)
	jmp	.LBB45_5
.LBB45_4:
.Ltmp41:
	movq	%rax, %rcx
	movl	%edx, %eax
	movq	%rcx, -32(%rbp)
	movl	%eax, -36(%rbp)
	leaq	-16(%rbp), %rdi
	callq	_ZN3sql9SQLStringD1Ev@PLT
.LBB45_5:
	movq	-32(%rbp), %rdi
	callq	__cxa_begin_catch@PLT
.Ltmp42:
	movq	_ZSt4cerr@GOTPCREL(%rip), %rdi
	leaq	.L.str.17(%rip), %rsi
	callq	_ZStlsISt11char_traitsIcEERSt13basic_ostreamIcT_ES5_PKc@PLT
.Ltmp43:
	movq	%rax, -72(%rbp)                 # 8-byte Spill
	jmp	.LBB45_6
.LBB45_6:
.Ltmp44:
	movq	-72(%rbp), %rdi                 # 8-byte Reload
	movq	_ZSt4endlIcSt11char_traitsIcEERSt13basic_ostreamIT_T0_ES6_@GOTPCREL(%rip), %rsi
	callq	_ZNSolsEPFRSoS_E@PLT
.Ltmp45:
	jmp	.LBB45_7
.LBB45_7:
	movl	$1, %edi
	callq	exit@PLT
.LBB45_8:
	movq	-56(%rbp), %rdi                 # 8-byte Reload
	callq	_ZNSt10unique_ptrIN3sql10ConnectionESt14default_deleteIS1_EED2Ev
.LBB45_9:
	leaq	-16(%rbp), %rdi
	callq	_ZN3sql9SQLStringD1Ev@PLT
	movq	%fs:40, %rax
	movq	-8(%rbp), %rcx
	cmpq	%rcx, %rax
	jne	.LBB45_16
# %bb.10:
	movq	-48(%rbp), %rax                 # 8-byte Reload
	addq	$80, %rsp
	popq	%rbp
	.cfi_def_cfa %rsp, 8
	retq
.LBB45_11:
	.cfi_def_cfa %rbp, 16
.Ltmp46:
	movq	%rax, %rcx
	movl	%edx, %eax
	movq	%rcx, -32(%rbp)
	movl	%eax, -36(%rbp)
.Ltmp47:
	callq	__cxa_end_catch@PLT
.Ltmp48:
	jmp	.LBB45_12
.LBB45_12:
	jmp	.LBB45_13
.LBB45_13:
	movq	-32(%rbp), %rax
	movq	%rax, -80(%rbp)                 # 8-byte Spill
	movq	%fs:40, %rax
	movq	-8(%rbp), %rcx
	cmpq	%rcx, %rax
	jne	.LBB45_16
# %bb.14:
	movq	-80(%rbp), %rdi                 # 8-byte Reload
	callq	_Unwind_Resume@PLT
.LBB45_15:
.Ltmp49:
	movq	%rax, %rdi
                                        # kill: def $eax killed $edx killed $rdx
	callq	__clang_call_terminate
.LBB45_16:
	callq	__stack_chk_fail@PLT
.Lfunc_end45:
	.size	_Z13get_conectionv, .Lfunc_end45-_Z13get_conectionv
	.cfi_endproc
	.section	.gcc_except_table,"a",@progbits
	.p2align	2, 0x0
GCC_except_table45:
.Lexception5:
	.byte	255                             # @LPStart Encoding = omit
	.byte	155                             # @TType Encoding = indirect pcrel sdata4
	.uleb128 .Lttbase0-.Lttbaseref0
.Lttbaseref0:
	.byte	1                               # Call site Encoding = uleb128
	.uleb128 .Lcst_end5-.Lcst_begin5
.Lcst_begin5:
	.uleb128 .Ltmp36-.Lfunc_begin5          # >> Call Site 1 <<
	.uleb128 .Ltmp37-.Ltmp36                #   Call between .Ltmp36 and .Ltmp37
	.uleb128 .Ltmp38-.Lfunc_begin5          #     jumps to .Ltmp38
	.byte	1                               #   On action: 1
	.uleb128 .Ltmp39-.Lfunc_begin5          # >> Call Site 2 <<
	.uleb128 .Ltmp40-.Ltmp39                #   Call between .Ltmp39 and .Ltmp40
	.uleb128 .Ltmp41-.Lfunc_begin5          #     jumps to .Ltmp41
	.byte	1                               #   On action: 1
	.uleb128 .Ltmp40-.Lfunc_begin5          # >> Call Site 3 <<
	.uleb128 .Ltmp42-.Ltmp40                #   Call between .Ltmp40 and .Ltmp42
	.byte	0                               #     has no landing pad
	.byte	0                               #   On action: cleanup
	.uleb128 .Ltmp42-.Lfunc_begin5          # >> Call Site 4 <<
	.uleb128 .Ltmp45-.Ltmp42                #   Call between .Ltmp42 and .Ltmp45
	.uleb128 .Ltmp46-.Lfunc_begin5          #     jumps to .Ltmp46
	.byte	0                               #   On action: cleanup
	.uleb128 .Ltmp47-.Lfunc_begin5          # >> Call Site 5 <<
	.uleb128 .Ltmp48-.Ltmp47                #   Call between .Ltmp47 and .Ltmp48
	.uleb128 .Ltmp49-.Lfunc_begin5          #     jumps to .Ltmp49
	.byte	1                               #   On action: 1
	.uleb128 .Ltmp48-.Lfunc_begin5          # >> Call Site 6 <<
	.uleb128 .Lfunc_end45-.Ltmp48           #   Call between .Ltmp48 and .Lfunc_end45
	.byte	0                               #     has no landing pad
	.byte	0                               #   On action: cleanup
.Lcst_end5:
	.byte	1                               # >> Action Record 1 <<
                                        #   Catch TypeInfo 1
	.byte	0                               #   No further actions
	.p2align	2, 0x0
                                        # >> Catch TypeInfos <<
	.long	0                               # TypeInfo 1
.Lttbase0:
	.p2align	2, 0x0
                                        # -- End function
	.section	.text._ZNSt10unique_ptrIN3sql10ConnectionESt14default_deleteIS1_EEC2IS3_vEEPS1_,"axG",@progbits,_ZNSt10unique_ptrIN3sql10ConnectionESt14default_deleteIS1_EEC2IS3_vEEPS1_,comdat
	.weak	_ZNSt10unique_ptrIN3sql10ConnectionESt14default_deleteIS1_EEC2IS3_vEEPS1_ # -- Begin function _ZNSt10unique_ptrIN3sql10ConnectionESt14default_deleteIS1_EEC2IS3_vEEPS1_
	.p2align	4, 0x90
	.type	_ZNSt10unique_ptrIN3sql10ConnectionESt14default_deleteIS1_EEC2IS3_vEEPS1_,@function
_ZNSt10unique_ptrIN3sql10ConnectionESt14default_deleteIS1_EEC2IS3_vEEPS1_: # @_ZNSt10unique_ptrIN3sql10ConnectionESt14default_deleteIS1_EEC2IS3_vEEPS1_
.Lfunc_begin6:
	.cfi_startproc
	.cfi_personality 155, DW.ref.__gxx_personality_v0
	.cfi_lsda 27, .Lexception6
# %bb.0:
	pushq	%rbp
	.cfi_def_cfa_offset 16
	.cfi_offset %rbp, -16
	movq	%rsp, %rbp
	.cfi_def_cfa_register %rbp
	subq	$16, %rsp
	movq	%rdi, -8(%rbp)
	movq	%rsi, -16(%rbp)
	movq	-8(%rbp), %rdi
	movq	-16(%rbp), %rsi
.Ltmp50:
	callq	_ZNSt15__uniq_ptr_dataIN3sql10ConnectionESt14default_deleteIS1_ELb1ELb1EECI2St15__uniq_ptr_implIS1_S3_EEPS1_
.Ltmp51:
	jmp	.LBB46_1
.LBB46_1:
	addq	$16, %rsp
	popq	%rbp
	.cfi_def_cfa %rsp, 8
	retq
.LBB46_2:
	.cfi_def_cfa %rbp, 16
.Ltmp52:
	movq	%rax, %rdi
                                        # kill: def $eax killed $edx killed $rdx
	callq	__clang_call_terminate
.Lfunc_end46:
	.size	_ZNSt10unique_ptrIN3sql10ConnectionESt14default_deleteIS1_EEC2IS3_vEEPS1_, .Lfunc_end46-_ZNSt10unique_ptrIN3sql10ConnectionESt14default_deleteIS1_EEC2IS3_vEEPS1_
	.cfi_endproc
	.section	.gcc_except_table._ZNSt10unique_ptrIN3sql10ConnectionESt14default_deleteIS1_EEC2IS3_vEEPS1_,"aG",@progbits,_ZNSt10unique_ptrIN3sql10ConnectionESt14default_deleteIS1_EEC2IS3_vEEPS1_,comdat
	.p2align	2, 0x0
GCC_except_table46:
.Lexception6:
	.byte	255                             # @LPStart Encoding = omit
	.byte	155                             # @TType Encoding = indirect pcrel sdata4
	.uleb128 .Lttbase1-.Lttbaseref1
.Lttbaseref1:
	.byte	1                               # Call site Encoding = uleb128
	.uleb128 .Lcst_end6-.Lcst_begin6
.Lcst_begin6:
	.uleb128 .Ltmp50-.Lfunc_begin6          # >> Call Site 1 <<
	.uleb128 .Ltmp51-.Ltmp50                #   Call between .Ltmp50 and .Ltmp51
	.uleb128 .Ltmp52-.Lfunc_begin6          #     jumps to .Ltmp52
	.byte	1                               #   On action: 1
.Lcst_end6:
	.byte	1                               # >> Action Record 1 <<
                                        #   Catch TypeInfo 1
	.byte	0                               #   No further actions
	.p2align	2, 0x0
                                        # >> Catch TypeInfos <<
	.long	0                               # TypeInfo 1
.Lttbase1:
	.p2align	2, 0x0
                                        # -- End function
	.section	.text._ZNSt10unique_ptrIN3sql10ConnectionESt14default_deleteIS1_EED2Ev,"axG",@progbits,_ZNSt10unique_ptrIN3sql10ConnectionESt14default_deleteIS1_EED2Ev,comdat
	.weak	_ZNSt10unique_ptrIN3sql10ConnectionESt14default_deleteIS1_EED2Ev # -- Begin function _ZNSt10unique_ptrIN3sql10ConnectionESt14default_deleteIS1_EED2Ev
	.p2align	4, 0x90
	.type	_ZNSt10unique_ptrIN3sql10ConnectionESt14default_deleteIS1_EED2Ev,@function
_ZNSt10unique_ptrIN3sql10ConnectionESt14default_deleteIS1_EED2Ev: # @_ZNSt10unique_ptrIN3sql10ConnectionESt14default_deleteIS1_EED2Ev
.Lfunc_begin7:
	.cfi_startproc
	.cfi_personality 155, DW.ref.__gxx_personality_v0
	.cfi_lsda 27, .Lexception7
# %bb.0:
	pushq	%rbp
	.cfi_def_cfa_offset 16
	.cfi_offset %rbp, -16
	movq	%rsp, %rbp
	.cfi_def_cfa_register %rbp
	subq	$32, %rsp
	movq	%rdi, -8(%rbp)
	movq	-8(%rbp), %rdi
	movq	%rdi, -24(%rbp)                 # 8-byte Spill
	callq	_ZNSt15__uniq_ptr_implIN3sql10ConnectionESt14default_deleteIS1_EE6_M_ptrEv
	movq	%rax, -16(%rbp)
	movq	-16(%rbp), %rax
	cmpq	$0, (%rax)
	je	.LBB47_3
# %bb.1:
	movq	-24(%rbp), %rdi                 # 8-byte Reload
	callq	_ZNSt10unique_ptrIN3sql10ConnectionESt14default_deleteIS1_EE11get_deleterEv
	movq	%rax, %rdi
	movq	-16(%rbp), %rax
	movq	(%rax), %rsi
.Ltmp53:
	callq	_ZNKSt14default_deleteIN3sql10ConnectionEEclEPS1_
.Ltmp54:
	jmp	.LBB47_2
.LBB47_2:
	jmp	.LBB47_3
.LBB47_3:
	movq	-16(%rbp), %rax
	movq	$0, (%rax)
	addq	$32, %rsp
	popq	%rbp
	.cfi_def_cfa %rsp, 8
	retq
.LBB47_4:
	.cfi_def_cfa %rbp, 16
.Ltmp55:
	movq	%rax, %rdi
                                        # kill: def $eax killed $edx killed $rdx
	callq	__clang_call_terminate
.Lfunc_end47:
	.size	_ZNSt10unique_ptrIN3sql10ConnectionESt14default_deleteIS1_EED2Ev, .Lfunc_end47-_ZNSt10unique_ptrIN3sql10ConnectionESt14default_deleteIS1_EED2Ev
	.cfi_endproc
	.section	.gcc_except_table._ZNSt10unique_ptrIN3sql10ConnectionESt14default_deleteIS1_EED2Ev,"aG",@progbits,_ZNSt10unique_ptrIN3sql10ConnectionESt14default_deleteIS1_EED2Ev,comdat
	.p2align	2, 0x0
GCC_except_table47:
.Lexception7:
	.byte	255                             # @LPStart Encoding = omit
	.byte	155                             # @TType Encoding = indirect pcrel sdata4
	.uleb128 .Lttbase2-.Lttbaseref2
.Lttbaseref2:
	.byte	1                               # Call site Encoding = uleb128
	.uleb128 .Lcst_end7-.Lcst_begin7
.Lcst_begin7:
	.uleb128 .Ltmp53-.Lfunc_begin7          # >> Call Site 1 <<
	.uleb128 .Ltmp54-.Ltmp53                #   Call between .Ltmp53 and .Ltmp54
	.uleb128 .Ltmp55-.Lfunc_begin7          #     jumps to .Ltmp55
	.byte	1                               #   On action: 1
.Lcst_end7:
	.byte	1                               # >> Action Record 1 <<
                                        #   Catch TypeInfo 1
	.byte	0                               #   No further actions
	.p2align	2, 0x0
                                        # >> Catch TypeInfos <<
	.long	0                               # TypeInfo 1
.Lttbase2:
	.p2align	2, 0x0
                                        # -- End function
	.section	.text.__clang_call_terminate,"axG",@progbits,__clang_call_terminate,comdat
	.hidden	__clang_call_terminate          # -- Begin function __clang_call_terminate
	.weak	__clang_call_terminate
	.p2align	4, 0x90
	.type	__clang_call_terminate,@function
__clang_call_terminate:                 # @__clang_call_terminate
	.cfi_startproc
# %bb.0:
	pushq	%rbp
	.cfi_def_cfa_offset 16
	.cfi_offset %rbp, -16
	movq	%rsp, %rbp
	.cfi_def_cfa_register %rbp
	callq	__cxa_begin_catch@PLT
	callq	_ZSt9terminatev@PLT
.Lfunc_end48:
	.size	__clang_call_terminate, .Lfunc_end48-__clang_call_terminate
	.cfi_endproc
                                        # -- End function
	.text
	.globl	_Z8list_allv                    # -- Begin function _Z8list_allv
	.p2align	4, 0x90
	.type	_Z8list_allv,@function
_Z8list_allv:                           # @_Z8list_allv
.Lfunc_begin8:
	.cfi_startproc
	.cfi_personality 155, DW.ref.__gxx_personality_v0
	.cfi_lsda 27, .Lexception8
# %bb.0:
	pushq	%rbp
	.cfi_def_cfa_offset 16
	.cfi_offset %rbp, -16
	movq	%rsp, %rbp
	.cfi_def_cfa_register %rbp
	subq	$592, %rsp                      # imm = 0x250
	movq	%fs:40, %rax
	movq	%rax, -8(%rbp)
	leaq	-16(%rbp), %rdi
	movq	%rdi, -280(%rbp)                # 8-byte Spill
	callq	_Z13get_conectionv
	movq	-280(%rbp), %rdi                # 8-byte Reload
	callq	_ZNKSt10unique_ptrIN3sql10ConnectionESt14default_deleteIS1_EEptEv
	movq	%rax, %rdi
	movq	(%rdi), %rax
	movq	16(%rax), %rax
.Ltmp56:
	callq	*%rax
.Ltmp57:
	movq	%rax, -272(%rbp)                # 8-byte Spill
	jmp	.LBB49_1
.LBB49_1:
.Ltmp58:
	movq	-272(%rbp), %rsi                # 8-byte Reload
	leaq	-32(%rbp), %rdi
	callq	_ZNSt10shared_ptrIN3sql9StatementEEC2IS1_vEEPT_
.Ltmp59:
	jmp	.LBB49_2
.LBB49_2:
	leaq	-32(%rbp), %rdi
	callq	_ZNKSt19__shared_ptr_accessIN3sql9StatementELN9__gnu_cxx12_Lock_policyE2ELb0ELb0EEptEv
	movq	%rax, -288(%rbp)                # 8-byte Spill
.Ltmp61:
	leaq	.L.str.18(%rip), %rsi
	leaq	-48(%rbp), %rdi
	callq	_ZN3sql9SQLStringC1EPKc@PLT
.Ltmp62:
	jmp	.LBB49_3
.LBB49_3:
	movq	-288(%rbp), %rdi                # 8-byte Reload
	movq	(%rdi), %rax
	movq	48(%rax), %rax
.Ltmp64:
	leaq	-48(%rbp), %rsi
	callq	*%rax
.Ltmp65:
	movq	%rax, -296(%rbp)                # 8-byte Spill
	jmp	.LBB49_4
.LBB49_4:
	movq	-296(%rbp), %rsi                # 8-byte Reload
	leaq	-40(%rbp), %rdi
	callq	_ZNSt10unique_ptrIN3sql9ResultSetESt14default_deleteIS1_EEC2IS3_vEEPS1_
	leaq	-48(%rbp), %rdi
	callq	_ZN3sql9SQLStringD1Ev@PLT
.LBB49_5:                               # =>This Loop Header: Depth=1
                                        #     Child Loop BB49_31 Depth 2
                                        #     Child Loop BB49_79 Depth 2
	leaq	-40(%rbp), %rdi
	callq	_ZNKSt10unique_ptrIN3sql9ResultSetESt14default_deleteIS1_EEptEv
	movq	%rax, %rdi
	movq	(%rdi), %rax
	movq	24(%rax), %rax
.Ltmp67:
	callq	*%rax
.Ltmp68:
	movb	%al, -297(%rbp)                 # 1-byte Spill
	jmp	.LBB49_6
.LBB49_6:                               #   in Loop: Header=BB49_5 Depth=1
	movb	-297(%rbp), %al                 # 1-byte Reload
	testb	$1, %al
	jne	.LBB49_7
	jmp	.LBB49_102
.LBB49_7:                               #   in Loop: Header=BB49_5 Depth=1
	leaq	-40(%rbp), %rdi
	callq	_ZNKSt10unique_ptrIN3sql9ResultSetESt14default_deleteIS1_EEptEv
	movq	%rax, -312(%rbp)                # 8-byte Spill
.Ltmp69:
	leaq	.L.str.19(%rip), %rsi
	leaq	-56(%rbp), %rdi
	callq	_ZN3sql9SQLStringC1EPKc@PLT
.Ltmp70:
	jmp	.LBB49_8
.LBB49_8:                               #   in Loop: Header=BB49_5 Depth=1
	movq	-312(%rbp), %rdi                # 8-byte Reload
	movq	(%rdi), %rax
	movq	256(%rax), %rax
.Ltmp71:
	leaq	-56(%rbp), %rsi
	callq	*%rax
.Ltmp72:
	movl	%eax, -316(%rbp)                # 4-byte Spill
	jmp	.LBB49_9
.LBB49_9:                               #   in Loop: Header=BB49_5 Depth=1
	leaq	-56(%rbp), %rdi
	callq	_ZN3sql9SQLStringD1Ev@PLT
	movl	-316(%rbp), %eax                # 4-byte Reload
	movl	%eax, -256(%rbp)
.Ltmp74:
	leaq	.L.str.20(%rip), %rdi
	xorl	%eax, %eax
                                        # kill: def $al killed $al killed $eax
	callq	printf@PLT
.Ltmp75:
	jmp	.LBB49_10
.LBB49_10:                              #   in Loop: Header=BB49_5 Depth=1
	movl	-256(%rbp), %esi
.Ltmp76:
	leaq	.L.str.21(%rip), %rdi
	xorl	%eax, %eax
                                        # kill: def $al killed $al killed $eax
	callq	printf@PLT
.Ltmp77:
	jmp	.LBB49_11
.LBB49_11:                              #   in Loop: Header=BB49_5 Depth=1
	leaq	-40(%rbp), %rdi
	callq	_ZNKSt10unique_ptrIN3sql9ResultSetESt14default_deleteIS1_EEptEv
	movq	%rax, -328(%rbp)                # 8-byte Spill
.Ltmp78:
	leaq	.L.str.23(%rip), %rsi
	leaq	-72(%rbp), %rdi
	callq	_ZN3sql9SQLStringC1EPKc@PLT
.Ltmp79:
	jmp	.LBB49_12
.LBB49_12:                              #   in Loop: Header=BB49_5 Depth=1
	movq	-328(%rbp), %rsi                # 8-byte Reload
	movq	(%rsi), %rax
	movq	240(%rax), %rax
.Ltmp80:
	leaq	-64(%rbp), %rdi
	leaq	-72(%rbp), %rdx
	callq	*%rax
.Ltmp81:
	jmp	.LBB49_13
.LBB49_13:                              #   in Loop: Header=BB49_5 Depth=1
.Ltmp83:
	leaq	-64(%rbp), %rdi
	callq	_ZNK3sql9SQLString5c_strEv@PLT
.Ltmp84:
	movq	%rax, -336(%rbp)                # 8-byte Spill
	jmp	.LBB49_14
.LBB49_14:                              #   in Loop: Header=BB49_5 Depth=1
.Ltmp85:
	movq	-336(%rbp), %rsi                # 8-byte Reload
	leaq	.L.str.22(%rip), %rdi
	xorl	%eax, %eax
                                        # kill: def $al killed $al killed $eax
	callq	printf@PLT
.Ltmp86:
	jmp	.LBB49_15
.LBB49_15:                              #   in Loop: Header=BB49_5 Depth=1
	leaq	-64(%rbp), %rdi
	callq	_ZN3sql9SQLStringD1Ev@PLT
	leaq	-72(%rbp), %rdi
	callq	_ZN3sql9SQLStringD1Ev@PLT
	leaq	-40(%rbp), %rdi
	callq	_ZNKSt10unique_ptrIN3sql9ResultSetESt14default_deleteIS1_EEptEv
	movq	%rax, -344(%rbp)                # 8-byte Spill
.Ltmp88:
	leaq	.L.str.25(%rip), %rsi
	leaq	-80(%rbp), %rdi
	callq	_ZN3sql9SQLStringC1EPKc@PLT
.Ltmp89:
	jmp	.LBB49_16
.LBB49_16:                              #   in Loop: Header=BB49_5 Depth=1
	movq	-344(%rbp), %rdi                # 8-byte Reload
	movq	(%rdi), %rax
	movq	256(%rax), %rax
.Ltmp90:
	leaq	-80(%rbp), %rsi
	callq	*%rax
.Ltmp91:
	movl	%eax, -348(%rbp)                # 4-byte Spill
	jmp	.LBB49_17
.LBB49_17:                              #   in Loop: Header=BB49_5 Depth=1
.Ltmp92:
	movl	-348(%rbp), %esi                # 4-byte Reload
	leaq	.L.str.24(%rip), %rdi
	xorl	%eax, %eax
                                        # kill: def $al killed $al killed $eax
	callq	printf@PLT
.Ltmp93:
	jmp	.LBB49_18
.LBB49_18:                              #   in Loop: Header=BB49_5 Depth=1
	leaq	-80(%rbp), %rdi
	callq	_ZN3sql9SQLStringD1Ev@PLT
	leaq	-40(%rbp), %rdi
	callq	_ZNKSt10unique_ptrIN3sql9ResultSetESt14default_deleteIS1_EEptEv
	movq	%rax, -360(%rbp)                # 8-byte Spill
.Ltmp95:
	leaq	.L.str.27(%rip), %rsi
	leaq	-88(%rbp), %rdi
	callq	_ZN3sql9SQLStringC1EPKc@PLT
.Ltmp96:
	jmp	.LBB49_19
.LBB49_19:                              #   in Loop: Header=BB49_5 Depth=1
	movq	-360(%rbp), %rdi                # 8-byte Reload
	movq	(%rdi), %rax
	movq	344(%rax), %rax
.Ltmp97:
	leaq	-88(%rbp), %rsi
	callq	*%rax
.Ltmp98:
	fstpt	-372(%rbp)                      # 10-byte Folded Spill
	jmp	.LBB49_20
.LBB49_20:                              #   in Loop: Header=BB49_5 Depth=1
.Ltmp99:
	fldt	-372(%rbp)                      # 10-byte Folded Reload
	movq	%rsp, %rax
	fstpt	(%rax)
	leaq	.L.str.26(%rip), %rdi
	xorl	%eax, %eax
                                        # kill: def $al killed $al killed $eax
	callq	printf@PLT
.Ltmp100:
	jmp	.LBB49_21
.LBB49_21:                              #   in Loop: Header=BB49_5 Depth=1
	leaq	-88(%rbp), %rdi
	callq	_ZN3sql9SQLStringD1Ev@PLT
	leaq	-40(%rbp), %rdi
	callq	_ZNKSt10unique_ptrIN3sql9ResultSetESt14default_deleteIS1_EEptEv
	movq	%rax, -384(%rbp)                # 8-byte Spill
.Ltmp102:
	leaq	.L.str.29(%rip), %rsi
	leaq	-104(%rbp), %rdi
	callq	_ZN3sql9SQLStringC1EPKc@PLT
.Ltmp103:
	jmp	.LBB49_22
.LBB49_22:                              #   in Loop: Header=BB49_5 Depth=1
	movq	-384(%rbp), %rsi                # 8-byte Reload
	movq	(%rsi), %rax
	movq	240(%rax), %rax
.Ltmp104:
	leaq	-96(%rbp), %rdi
	leaq	-104(%rbp), %rdx
	callq	*%rax
.Ltmp105:
	jmp	.LBB49_23
.LBB49_23:                              #   in Loop: Header=BB49_5 Depth=1
.Ltmp107:
	leaq	-96(%rbp), %rdi
	callq	_ZNK3sql9SQLString5c_strEv@PLT
.Ltmp108:
	movq	%rax, -392(%rbp)                # 8-byte Spill
	jmp	.LBB49_24
.LBB49_24:                              #   in Loop: Header=BB49_5 Depth=1
.Ltmp109:
	movq	-392(%rbp), %rsi                # 8-byte Reload
	leaq	.L.str.28(%rip), %rdi
	xorl	%eax, %eax
                                        # kill: def $al killed $al killed $eax
	callq	printf@PLT
.Ltmp110:
	jmp	.LBB49_25
.LBB49_25:                              #   in Loop: Header=BB49_5 Depth=1
	leaq	-96(%rbp), %rdi
	callq	_ZN3sql9SQLStringD1Ev@PLT
	leaq	-104(%rbp), %rdi
	callq	_ZN3sql9SQLStringD1Ev@PLT
	leaq	-16(%rbp), %rdi
	callq	_ZNKSt10unique_ptrIN3sql10ConnectionESt14default_deleteIS1_EEptEv
	movq	%rax, -400(%rbp)                # 8-byte Spill
.Ltmp112:
	leaq	.L.str.30(%rip), %rsi
	leaq	-128(%rbp), %rdi
	callq	_ZN3sql9SQLStringC1EPKc@PLT
.Ltmp113:
	jmp	.LBB49_26
.LBB49_26:                              #   in Loop: Header=BB49_5 Depth=1
	movq	-400(%rbp), %rdi                # 8-byte Reload
	movq	(%rdi), %rax
	movq	40(%rax), %rax
.Ltmp115:
	leaq	-128(%rbp), %rsi
	callq	*%rax
.Ltmp116:
	movq	%rax, -408(%rbp)                # 8-byte Spill
	jmp	.LBB49_27
.LBB49_27:                              #   in Loop: Header=BB49_5 Depth=1
.Ltmp117:
	movq	-408(%rbp), %rsi                # 8-byte Reload
	leaq	-120(%rbp), %rdi
	callq	_ZNSt10shared_ptrIN3sql17PreparedStatementEEC2IS1_vEEPT_
.Ltmp118:
	jmp	.LBB49_28
.LBB49_28:                              #   in Loop: Header=BB49_5 Depth=1
	leaq	-128(%rbp), %rdi
	callq	_ZN3sql9SQLStringD1Ev@PLT
	leaq	-120(%rbp), %rdi
	callq	_ZNKSt19__shared_ptr_accessIN3sql17PreparedStatementELN9__gnu_cxx12_Lock_policyE2ELb0ELb0EEptEv
	movq	%rax, %rdi
	movl	-256(%rbp), %edx
	movq	(%rdi), %rax
	movq	536(%rax), %rax
.Ltmp120:
	movl	$1, %esi
	callq	*%rax
.Ltmp121:
	jmp	.LBB49_29
.LBB49_29:                              #   in Loop: Header=BB49_5 Depth=1
	leaq	-120(%rbp), %rdi
	callq	_ZNKSt19__shared_ptr_accessIN3sql17PreparedStatementELN9__gnu_cxx12_Lock_policyE2ELb0ELb0EEptEv
	movq	%rax, %rdi
	movq	(%rdi), %rax
	movq	456(%rax), %rax
.Ltmp122:
	callq	*%rax
.Ltmp123:
	movq	%rax, -416(%rbp)                # 8-byte Spill
	jmp	.LBB49_30
.LBB49_30:                              #   in Loop: Header=BB49_5 Depth=1
	movq	-416(%rbp), %rsi                # 8-byte Reload
	leaq	-136(%rbp), %rdi
	callq	_ZNSt10unique_ptrIN3sql9ResultSetESt14default_deleteIS1_EEC2IS3_vEEPS1_
.LBB49_31:                              #   Parent Loop BB49_5 Depth=1
                                        # =>  This Inner Loop Header: Depth=2
	leaq	-136(%rbp), %rdi
	callq	_ZNKSt10unique_ptrIN3sql9ResultSetESt14default_deleteIS1_EEptEv
	movq	%rax, %rdi
	movq	(%rdi), %rax
	movq	24(%rax), %rax
.Ltmp125:
	callq	*%rax
.Ltmp126:
	movb	%al, -417(%rbp)                 # 1-byte Spill
	jmp	.LBB49_32
.LBB49_32:                              #   in Loop: Header=BB49_31 Depth=2
	movb	-417(%rbp), %al                 # 1-byte Reload
	testb	$1, %al
	jne	.LBB49_33
	jmp	.LBB49_72
.LBB49_33:                              #   in Loop: Header=BB49_31 Depth=2
.Ltmp161:
	leaq	.L.str.31(%rip), %rdi
	xorl	%eax, %eax
                                        # kill: def $al killed $al killed $eax
	callq	printf@PLT
.Ltmp162:
	jmp	.LBB49_34
.LBB49_34:                              #   in Loop: Header=BB49_31 Depth=2
	leaq	-136(%rbp), %rdi
	callq	_ZNKSt10unique_ptrIN3sql9ResultSetESt14default_deleteIS1_EEptEv
	movq	%rax, -432(%rbp)                # 8-byte Spill
.Ltmp163:
	leaq	.L.str.23(%rip), %rsi
	leaq	-152(%rbp), %rdi
	callq	_ZN3sql9SQLStringC1EPKc@PLT
.Ltmp164:
	jmp	.LBB49_35
.LBB49_35:                              #   in Loop: Header=BB49_31 Depth=2
	movq	-432(%rbp), %rsi                # 8-byte Reload
	movq	(%rsi), %rax
	movq	240(%rax), %rax
.Ltmp165:
	leaq	-144(%rbp), %rdi
	leaq	-152(%rbp), %rdx
	callq	*%rax
.Ltmp166:
	jmp	.LBB49_36
.LBB49_36:                              #   in Loop: Header=BB49_31 Depth=2
.Ltmp168:
	leaq	-144(%rbp), %rdi
	callq	_ZNK3sql9SQLString5c_strEv@PLT
.Ltmp169:
	movq	%rax, -440(%rbp)                # 8-byte Spill
	jmp	.LBB49_37
.LBB49_37:                              #   in Loop: Header=BB49_31 Depth=2
.Ltmp170:
	movq	-440(%rbp), %rsi                # 8-byte Reload
	leaq	.L.str.32(%rip), %rdi
	xorl	%eax, %eax
                                        # kill: def $al killed $al killed $eax
	callq	printf@PLT
.Ltmp171:
	jmp	.LBB49_38
.LBB49_38:                              #   in Loop: Header=BB49_31 Depth=2
	leaq	-144(%rbp), %rdi
	callq	_ZN3sql9SQLStringD1Ev@PLT
	leaq	-152(%rbp), %rdi
	callq	_ZN3sql9SQLStringD1Ev@PLT
	leaq	-136(%rbp), %rdi
	callq	_ZNKSt10unique_ptrIN3sql9ResultSetESt14default_deleteIS1_EEptEv
	movq	%rax, -448(%rbp)                # 8-byte Spill
.Ltmp173:
	leaq	.L.str.34(%rip), %rsi
	leaq	-168(%rbp), %rdi
	callq	_ZN3sql9SQLStringC1EPKc@PLT
.Ltmp174:
	jmp	.LBB49_39
.LBB49_39:                              #   in Loop: Header=BB49_31 Depth=2
	movq	-448(%rbp), %rsi                # 8-byte Reload
	movq	(%rsi), %rax
	movq	240(%rax), %rax
.Ltmp175:
	leaq	-160(%rbp), %rdi
	leaq	-168(%rbp), %rdx
	callq	*%rax
.Ltmp176:
	jmp	.LBB49_40
.LBB49_40:                              #   in Loop: Header=BB49_31 Depth=2
.Ltmp178:
	leaq	-160(%rbp), %rdi
	callq	_ZNK3sql9SQLString5c_strEv@PLT
.Ltmp179:
	movq	%rax, -456(%rbp)                # 8-byte Spill
	jmp	.LBB49_41
.LBB49_41:                              #   in Loop: Header=BB49_31 Depth=2
.Ltmp180:
	movq	-456(%rbp), %rsi                # 8-byte Reload
	leaq	.L.str.33(%rip), %rdi
	xorl	%eax, %eax
                                        # kill: def $al killed $al killed $eax
	callq	printf@PLT
.Ltmp181:
	jmp	.LBB49_42
.LBB49_42:                              #   in Loop: Header=BB49_31 Depth=2
	leaq	-160(%rbp), %rdi
	callq	_ZN3sql9SQLStringD1Ev@PLT
	leaq	-168(%rbp), %rdi
	callq	_ZN3sql9SQLStringD1Ev@PLT
	leaq	-136(%rbp), %rdi
	callq	_ZNKSt10unique_ptrIN3sql9ResultSetESt14default_deleteIS1_EEptEv
	movq	%rax, -464(%rbp)                # 8-byte Spill
.Ltmp183:
	leaq	.L.str.36(%rip), %rsi
	leaq	-184(%rbp), %rdi
	callq	_ZN3sql9SQLStringC1EPKc@PLT
.Ltmp184:
	jmp	.LBB49_43
.LBB49_43:                              #   in Loop: Header=BB49_31 Depth=2
	movq	-464(%rbp), %rsi                # 8-byte Reload
	movq	(%rsi), %rax
	movq	240(%rax), %rax
.Ltmp186:
	leaq	-176(%rbp), %rdi
	leaq	-184(%rbp), %rdx
	callq	*%rax
.Ltmp187:
	jmp	.LBB49_44
.LBB49_44:                              #   in Loop: Header=BB49_31 Depth=2
.Ltmp189:
	leaq	-176(%rbp), %rdi
	callq	_ZNK3sql9SQLString5c_strEv@PLT
.Ltmp190:
	movq	%rax, -472(%rbp)                # 8-byte Spill
	jmp	.LBB49_45
.LBB49_45:                              #   in Loop: Header=BB49_31 Depth=2
.Ltmp191:
	movq	-472(%rbp), %rsi                # 8-byte Reload
	leaq	.L.str.35(%rip), %rdi
	xorl	%eax, %eax
                                        # kill: def $al killed $al killed $eax
	callq	printf@PLT
.Ltmp192:
	jmp	.LBB49_46
.LBB49_46:                              #   in Loop: Header=BB49_31 Depth=2
	leaq	-176(%rbp), %rdi
	callq	_ZN3sql9SQLStringD1Ev@PLT
	leaq	-184(%rbp), %rdi
	callq	_ZN3sql9SQLStringD1Ev@PLT
	jmp	.LBB49_31
.LBB49_47:
.Ltmp60:
	movq	%rax, %rcx
	movl	%edx, %eax
	movq	%rcx, -248(%rbp)
	movl	%eax, -252(%rbp)
	jmp	.LBB49_105
.LBB49_48:
.Ltmp63:
	movq	%rax, %rcx
	movl	%edx, %eax
	movq	%rcx, -248(%rbp)
	movl	%eax, -252(%rbp)
	jmp	.LBB49_104
.LBB49_49:
.Ltmp66:
	movq	%rax, %rcx
	movl	%edx, %eax
	movq	%rcx, -248(%rbp)
	movl	%eax, -252(%rbp)
	leaq	-48(%rbp), %rdi
	callq	_ZN3sql9SQLStringD1Ev@PLT
	jmp	.LBB49_104
.LBB49_50:
.Ltmp114:
	movq	%rax, %rcx
	movl	%edx, %eax
	movq	%rcx, -248(%rbp)
	movl	%eax, -252(%rbp)
	jmp	.LBB49_103
.LBB49_51:
.Ltmp73:
	movq	%rax, %rcx
	movl	%edx, %eax
	movq	%rcx, -248(%rbp)
	movl	%eax, -252(%rbp)
	leaq	-56(%rbp), %rdi
	callq	_ZN3sql9SQLStringD1Ev@PLT
	jmp	.LBB49_103
.LBB49_52:
.Ltmp82:
	movq	%rax, %rcx
	movl	%edx, %eax
	movq	%rcx, -248(%rbp)
	movl	%eax, -252(%rbp)
	jmp	.LBB49_54
.LBB49_53:
.Ltmp87:
	movq	%rax, %rcx
	movl	%edx, %eax
	movq	%rcx, -248(%rbp)
	movl	%eax, -252(%rbp)
	leaq	-64(%rbp), %rdi
	callq	_ZN3sql9SQLStringD1Ev@PLT
.LBB49_54:
	leaq	-72(%rbp), %rdi
	callq	_ZN3sql9SQLStringD1Ev@PLT
	jmp	.LBB49_103
.LBB49_55:
.Ltmp94:
	movq	%rax, %rcx
	movl	%edx, %eax
	movq	%rcx, -248(%rbp)
	movl	%eax, -252(%rbp)
	leaq	-80(%rbp), %rdi
	callq	_ZN3sql9SQLStringD1Ev@PLT
	jmp	.LBB49_103
.LBB49_56:
.Ltmp101:
	movq	%rax, %rcx
	movl	%edx, %eax
	movq	%rcx, -248(%rbp)
	movl	%eax, -252(%rbp)
	leaq	-88(%rbp), %rdi
	callq	_ZN3sql9SQLStringD1Ev@PLT
	jmp	.LBB49_103
.LBB49_57:
.Ltmp106:
	movq	%rax, %rcx
	movl	%edx, %eax
	movq	%rcx, -248(%rbp)
	movl	%eax, -252(%rbp)
	jmp	.LBB49_59
.LBB49_58:
.Ltmp111:
	movq	%rax, %rcx
	movl	%edx, %eax
	movq	%rcx, -248(%rbp)
	movl	%eax, -252(%rbp)
	leaq	-96(%rbp), %rdi
	callq	_ZN3sql9SQLStringD1Ev@PLT
.LBB49_59:
	leaq	-104(%rbp), %rdi
	callq	_ZN3sql9SQLStringD1Ev@PLT
	jmp	.LBB49_103
.LBB49_60:
.Ltmp119:
	movq	%rax, %rcx
	movl	%edx, %eax
	movq	%rcx, -248(%rbp)
	movl	%eax, -252(%rbp)
	leaq	-128(%rbp), %rdi
	callq	_ZN3sql9SQLStringD1Ev@PLT
	jmp	.LBB49_103
.LBB49_61:
.Ltmp124:
	movq	%rax, %rcx
	movl	%edx, %eax
	movq	%rcx, -248(%rbp)
	movl	%eax, -252(%rbp)
	jmp	.LBB49_101
.LBB49_62:
.Ltmp185:
	movq	%rax, %rcx
	movl	%edx, %eax
	movq	%rcx, -248(%rbp)
	movl	%eax, -252(%rbp)
	jmp	.LBB49_100
.LBB49_63:
.Ltmp167:
	movq	%rax, %rcx
	movl	%edx, %eax
	movq	%rcx, -248(%rbp)
	movl	%eax, -252(%rbp)
	jmp	.LBB49_65
.LBB49_64:
.Ltmp172:
	movq	%rax, %rcx
	movl	%edx, %eax
	movq	%rcx, -248(%rbp)
	movl	%eax, -252(%rbp)
	leaq	-144(%rbp), %rdi
	callq	_ZN3sql9SQLStringD1Ev@PLT
.LBB49_65:
	leaq	-152(%rbp), %rdi
	callq	_ZN3sql9SQLStringD1Ev@PLT
	jmp	.LBB49_100
.LBB49_66:
.Ltmp177:
	movq	%rax, %rcx
	movl	%edx, %eax
	movq	%rcx, -248(%rbp)
	movl	%eax, -252(%rbp)
	jmp	.LBB49_68
.LBB49_67:
.Ltmp182:
	movq	%rax, %rcx
	movl	%edx, %eax
	movq	%rcx, -248(%rbp)
	movl	%eax, -252(%rbp)
	leaq	-160(%rbp), %rdi
	callq	_ZN3sql9SQLStringD1Ev@PLT
.LBB49_68:
	leaq	-168(%rbp), %rdi
	callq	_ZN3sql9SQLStringD1Ev@PLT
	jmp	.LBB49_100
.LBB49_69:
.Ltmp188:
	movq	%rax, %rcx
	movl	%edx, %eax
	movq	%rcx, -248(%rbp)
	movl	%eax, -252(%rbp)
	jmp	.LBB49_71
.LBB49_70:
.Ltmp193:
	movq	%rax, %rcx
	movl	%edx, %eax
	movq	%rcx, -248(%rbp)
	movl	%eax, -252(%rbp)
	leaq	-176(%rbp), %rdi
	callq	_ZN3sql9SQLStringD1Ev@PLT
.LBB49_71:
	leaq	-184(%rbp), %rdi
	callq	_ZN3sql9SQLStringD1Ev@PLT
	jmp	.LBB49_100
.LBB49_72:                              #   in Loop: Header=BB49_5 Depth=1
	leaq	-16(%rbp), %rdi
	callq	_ZNKSt10unique_ptrIN3sql10ConnectionESt14default_deleteIS1_EEptEv
	movq	%rax, -480(%rbp)                # 8-byte Spill
.Ltmp127:
	leaq	.L.str.37(%rip), %rsi
	leaq	-208(%rbp), %rdi
	callq	_ZN3sql9SQLStringC1EPKc@PLT
.Ltmp128:
	jmp	.LBB49_73
.LBB49_73:                              #   in Loop: Header=BB49_5 Depth=1
	movq	-480(%rbp), %rdi                # 8-byte Reload
	movq	(%rdi), %rax
	movq	40(%rax), %rax
.Ltmp129:
	leaq	-208(%rbp), %rsi
	callq	*%rax
.Ltmp130:
	movq	%rax, -488(%rbp)                # 8-byte Spill
	jmp	.LBB49_74
.LBB49_74:                              #   in Loop: Header=BB49_5 Depth=1
.Ltmp131:
	movq	-488(%rbp), %rsi                # 8-byte Reload
	leaq	-200(%rbp), %rdi
	callq	_ZNSt10shared_ptrIN3sql17PreparedStatementEEC2IS1_vEEPT_
.Ltmp132:
	jmp	.LBB49_75
.LBB49_75:                              #   in Loop: Header=BB49_5 Depth=1
	leaq	-208(%rbp), %rdi
	callq	_ZN3sql9SQLStringD1Ev@PLT
	leaq	-200(%rbp), %rdi
	callq	_ZNKSt19__shared_ptr_accessIN3sql17PreparedStatementELN9__gnu_cxx12_Lock_policyE2ELb0ELb0EEptEv
	movq	%rax, %rdi
	movl	-256(%rbp), %edx
	movq	(%rdi), %rax
	movq	536(%rax), %rax
.Ltmp134:
	movl	$1, %esi
	callq	*%rax
.Ltmp135:
	jmp	.LBB49_76
.LBB49_76:                              #   in Loop: Header=BB49_5 Depth=1
	leaq	-200(%rbp), %rdi
	callq	_ZNKSt19__shared_ptr_accessIN3sql17PreparedStatementELN9__gnu_cxx12_Lock_policyE2ELb0ELb0EEptEv
	movq	%rax, %rdi
	movq	(%rdi), %rax
	movq	456(%rax), %rax
.Ltmp136:
	callq	*%rax
.Ltmp137:
	movq	%rax, -496(%rbp)                # 8-byte Spill
	jmp	.LBB49_77
.LBB49_77:                              #   in Loop: Header=BB49_5 Depth=1
	movq	-496(%rbp), %rsi                # 8-byte Reload
	leaq	-216(%rbp), %rdi
	callq	_ZNSt10unique_ptrIN3sql9ResultSetESt14default_deleteIS1_EEC2IS3_vEEPS1_
.Ltmp139:
	leaq	.L.str.38(%rip), %rdi
	xorl	%eax, %eax
                                        # kill: def $al killed $al killed $eax
	callq	printf@PLT
.Ltmp140:
	jmp	.LBB49_78
.LBB49_78:                              #   in Loop: Header=BB49_5 Depth=1
	jmp	.LBB49_79
.LBB49_79:                              #   Parent Loop BB49_5 Depth=1
                                        # =>  This Inner Loop Header: Depth=2
	leaq	-216(%rbp), %rdi
	callq	_ZNKSt10unique_ptrIN3sql9ResultSetESt14default_deleteIS1_EEptEv
	movq	%rax, %rdi
	movq	(%rdi), %rax
	movq	24(%rax), %rax
.Ltmp141:
	callq	*%rax
.Ltmp142:
	movb	%al, -497(%rbp)                 # 1-byte Spill
	jmp	.LBB49_80
.LBB49_80:                              #   in Loop: Header=BB49_79 Depth=2
	movb	-497(%rbp), %al                 # 1-byte Reload
	testb	$1, %al
	jne	.LBB49_81
	jmp	.LBB49_96
.LBB49_81:                              #   in Loop: Header=BB49_79 Depth=2
	leaq	-216(%rbp), %rdi
	callq	_ZNKSt10unique_ptrIN3sql9ResultSetESt14default_deleteIS1_EEptEv
	movq	%rax, -512(%rbp)                # 8-byte Spill
.Ltmp145:
	leaq	.L.str.40(%rip), %rsi
	leaq	-232(%rbp), %rdi
	callq	_ZN3sql9SQLStringC1EPKc@PLT
.Ltmp146:
	jmp	.LBB49_82
.LBB49_82:                              #   in Loop: Header=BB49_79 Depth=2
	movq	-512(%rbp), %rsi                # 8-byte Reload
	movq	(%rsi), %rax
	movq	240(%rax), %rax
.Ltmp148:
	leaq	-224(%rbp), %rdi
	leaq	-232(%rbp), %rdx
	callq	*%rax
.Ltmp149:
	jmp	.LBB49_83
.LBB49_83:                              #   in Loop: Header=BB49_79 Depth=2
.Ltmp151:
	leaq	-224(%rbp), %rdi
	callq	_ZNK3sql9SQLString5c_strEv@PLT
.Ltmp152:
	movq	%rax, -520(%rbp)                # 8-byte Spill
	jmp	.LBB49_84
.LBB49_84:                              #   in Loop: Header=BB49_79 Depth=2
	leaq	-216(%rbp), %rdi
	callq	_ZNKSt10unique_ptrIN3sql9ResultSetESt14default_deleteIS1_EEptEv
	movq	%rax, -528(%rbp)                # 8-byte Spill
.Ltmp153:
	leaq	.L.str.41(%rip), %rsi
	leaq	-240(%rbp), %rdi
	callq	_ZN3sql9SQLStringC1EPKc@PLT
.Ltmp154:
	jmp	.LBB49_85
.LBB49_85:                              #   in Loop: Header=BB49_79 Depth=2
	movq	-528(%rbp), %rdi                # 8-byte Reload
	movq	(%rdi), %rax
	movq	344(%rax), %rax
.Ltmp156:
	leaq	-240(%rbp), %rsi
	callq	*%rax
.Ltmp157:
	fstpt	-540(%rbp)                      # 10-byte Folded Spill
	jmp	.LBB49_86
.LBB49_86:                              #   in Loop: Header=BB49_79 Depth=2
.Ltmp158:
	movq	-520(%rbp), %rsi                # 8-byte Reload
	fldt	-540(%rbp)                      # 10-byte Folded Reload
	movq	%rsp, %rax
	fstpt	(%rax)
	leaq	.L.str.39(%rip), %rdi
	xorl	%eax, %eax
                                        # kill: def $al killed $al killed $eax
	callq	printf@PLT
.Ltmp159:
	jmp	.LBB49_87
.LBB49_87:                              #   in Loop: Header=BB49_79 Depth=2
	leaq	-240(%rbp), %rdi
	callq	_ZN3sql9SQLStringD1Ev@PLT
	leaq	-224(%rbp), %rdi
	callq	_ZN3sql9SQLStringD1Ev@PLT
	leaq	-232(%rbp), %rdi
	callq	_ZN3sql9SQLStringD1Ev@PLT
	jmp	.LBB49_79
.LBB49_88:
.Ltmp133:
	movq	%rax, %rcx
	movl	%edx, %eax
	movq	%rcx, -248(%rbp)
	movl	%eax, -252(%rbp)
	leaq	-208(%rbp), %rdi
	callq	_ZN3sql9SQLStringD1Ev@PLT
	jmp	.LBB49_100
.LBB49_89:
.Ltmp138:
	movq	%rax, %rcx
	movl	%edx, %eax
	movq	%rcx, -248(%rbp)
	movl	%eax, -252(%rbp)
	jmp	.LBB49_99
.LBB49_90:
.Ltmp147:
	movq	%rax, %rcx
	movl	%edx, %eax
	movq	%rcx, -248(%rbp)
	movl	%eax, -252(%rbp)
	jmp	.LBB49_98
.LBB49_91:
.Ltmp150:
	movq	%rax, %rcx
	movl	%edx, %eax
	movq	%rcx, -248(%rbp)
	movl	%eax, -252(%rbp)
	jmp	.LBB49_95
.LBB49_92:
.Ltmp155:
	movq	%rax, %rcx
	movl	%edx, %eax
	movq	%rcx, -248(%rbp)
	movl	%eax, -252(%rbp)
	jmp	.LBB49_94
.LBB49_93:
.Ltmp160:
	movq	%rax, %rcx
	movl	%edx, %eax
	movq	%rcx, -248(%rbp)
	movl	%eax, -252(%rbp)
	leaq	-240(%rbp), %rdi
	callq	_ZN3sql9SQLStringD1Ev@PLT
.LBB49_94:
	leaq	-224(%rbp), %rdi
	callq	_ZN3sql9SQLStringD1Ev@PLT
.LBB49_95:
	leaq	-232(%rbp), %rdi
	callq	_ZN3sql9SQLStringD1Ev@PLT
	jmp	.LBB49_98
.LBB49_96:                              #   in Loop: Header=BB49_5 Depth=1
.Ltmp143:
	leaq	.L.str.42(%rip), %rdi
	xorl	%eax, %eax
                                        # kill: def $al killed $al killed $eax
	callq	printf@PLT
.Ltmp144:
	jmp	.LBB49_97
.LBB49_97:                              #   in Loop: Header=BB49_5 Depth=1
	leaq	-216(%rbp), %rdi
	callq	_ZNSt10unique_ptrIN3sql9ResultSetESt14default_deleteIS1_EED2Ev
	leaq	-200(%rbp), %rdi
	callq	_ZNSt10shared_ptrIN3sql17PreparedStatementEED2Ev
	leaq	-136(%rbp), %rdi
	callq	_ZNSt10unique_ptrIN3sql9ResultSetESt14default_deleteIS1_EED2Ev
	leaq	-120(%rbp), %rdi
	callq	_ZNSt10shared_ptrIN3sql17PreparedStatementEED2Ev
	jmp	.LBB49_5
.LBB49_98:
	leaq	-216(%rbp), %rdi
	callq	_ZNSt10unique_ptrIN3sql9ResultSetESt14default_deleteIS1_EED2Ev
.LBB49_99:
	leaq	-200(%rbp), %rdi
	callq	_ZNSt10shared_ptrIN3sql17PreparedStatementEED2Ev
.LBB49_100:
	leaq	-136(%rbp), %rdi
	callq	_ZNSt10unique_ptrIN3sql9ResultSetESt14default_deleteIS1_EED2Ev
.LBB49_101:
	leaq	-120(%rbp), %rdi
	callq	_ZNSt10shared_ptrIN3sql17PreparedStatementEED2Ev
	jmp	.LBB49_103
.LBB49_102:
	leaq	-40(%rbp), %rdi
	callq	_ZNSt10unique_ptrIN3sql9ResultSetESt14default_deleteIS1_EED2Ev
	leaq	-32(%rbp), %rdi
	callq	_ZNSt10shared_ptrIN3sql9StatementEED2Ev
	jmp	.LBB49_112
.LBB49_103:
	leaq	-40(%rbp), %rdi
	callq	_ZNSt10unique_ptrIN3sql9ResultSetESt14default_deleteIS1_EED2Ev
.LBB49_104:
	leaq	-32(%rbp), %rdi
	callq	_ZNSt10shared_ptrIN3sql9StatementEED2Ev
.LBB49_105:
	movl	-252(%rbp), %eax
	movl	$1, %ecx
	cmpl	%ecx, %eax
	jne	.LBB49_118
# %bb.106:
	movq	-248(%rbp), %rdi
	callq	__cxa_begin_catch@PLT
	movq	%rax, -264(%rbp)
.Ltmp194:
	movq	_ZSt4cerr@GOTPCREL(%rip), %rdi
	leaq	.L.str.43(%rip), %rsi
	callq	_ZStlsISt11char_traitsIcEERSt13basic_ostreamIcT_ES5_PKc@PLT
.Ltmp195:
	movq	%rax, -552(%rbp)                # 8-byte Spill
	jmp	.LBB49_107
.LBB49_107:
	movq	-264(%rbp), %rdi
	movq	(%rdi), %rax
	movq	16(%rax), %rax
	callq	*%rax
	movq	-552(%rbp), %rdi                # 8-byte Reload
	movq	%rax, %rsi
.Ltmp196:
	callq	_ZStlsISt11char_traitsIcEERSt13basic_ostreamIcT_ES5_PKc@PLT
.Ltmp197:
	movq	%rax, -560(%rbp)                # 8-byte Spill
	jmp	.LBB49_108
.LBB49_108:
.Ltmp198:
	movq	-560(%rbp), %rdi                # 8-byte Reload
	movq	_ZSt4endlIcSt11char_traitsIcEERSt13basic_ostreamIT_T0_ES6_@GOTPCREL(%rip), %rsi
	callq	_ZNSolsEPFRSoS_E@PLT
.Ltmp199:
	jmp	.LBB49_109
.LBB49_109:
	leaq	-16(%rbp), %rdi
	callq	_ZNKSt10unique_ptrIN3sql10ConnectionESt14default_deleteIS1_EEptEv
	movq	%rax, %rdi
	movq	(%rdi), %rax
	movq	160(%rax), %rax
.Ltmp200:
	callq	*%rax
.Ltmp201:
	jmp	.LBB49_110
.LBB49_110:
.Ltmp206:
	callq	__cxa_end_catch@PLT
.Ltmp207:
	jmp	.LBB49_111
.LBB49_111:
	jmp	.LBB49_112
.LBB49_112:
	leaq	-16(%rbp), %rdi
	callq	_ZNKSt10unique_ptrIN3sql10ConnectionESt14default_deleteIS1_EEptEv
	movq	%rax, %rdi
	movq	(%rdi), %rax
	movq	160(%rax), %rax
.Ltmp208:
	callq	*%rax
.Ltmp209:
	jmp	.LBB49_113
.LBB49_113:
	leaq	-16(%rbp), %rdi
	callq	_ZNSt10unique_ptrIN3sql10ConnectionESt14default_deleteIS1_EED2Ev
	movq	%fs:40, %rax
	movq	-8(%rbp), %rcx
	cmpq	%rcx, %rax
	jne	.LBB49_122
# %bb.114:
	addq	$592, %rsp                      # imm = 0x250
	popq	%rbp
	.cfi_def_cfa %rsp, 8
	retq
.LBB49_115:
	.cfi_def_cfa %rbp, 16
.Ltmp202:
	movq	%rax, %rcx
	movl	%edx, %eax
	movq	%rcx, -248(%rbp)
	movl	%eax, -252(%rbp)
.Ltmp203:
	callq	__cxa_end_catch@PLT
.Ltmp204:
	jmp	.LBB49_117
.LBB49_116:
.Ltmp210:
	movq	%rax, %rcx
	movl	%edx, %eax
	movq	%rcx, -248(%rbp)
	movl	%eax, -252(%rbp)
	jmp	.LBB49_118
.LBB49_117:
	jmp	.LBB49_118
.LBB49_118:
	leaq	-16(%rbp), %rdi
	callq	_ZNSt10unique_ptrIN3sql10ConnectionESt14default_deleteIS1_EED2Ev
# %bb.119:
	movq	-248(%rbp), %rax
	movq	%rax, -568(%rbp)                # 8-byte Spill
	movq	%fs:40, %rax
	movq	-8(%rbp), %rcx
	cmpq	%rcx, %rax
	jne	.LBB49_122
# %bb.120:
	movq	-568(%rbp), %rdi                # 8-byte Reload
	callq	_Unwind_Resume@PLT
.LBB49_121:
.Ltmp205:
	movq	%rax, %rdi
                                        # kill: def $eax killed $edx killed $rdx
	callq	__clang_call_terminate
.LBB49_122:
	callq	__stack_chk_fail@PLT
.Lfunc_end49:
	.size	_Z8list_allv, .Lfunc_end49-_Z8list_allv
	.cfi_endproc
	.section	.gcc_except_table,"a",@progbits
	.p2align	2, 0x0
GCC_except_table49:
.Lexception8:
	.byte	255                             # @LPStart Encoding = omit
	.byte	155                             # @TType Encoding = indirect pcrel sdata4
	.uleb128 .Lttbase3-.Lttbaseref3
.Lttbaseref3:
	.byte	1                               # Call site Encoding = uleb128
	.uleb128 .Lcst_end8-.Lcst_begin8
.Lcst_begin8:
	.uleb128 .Lfunc_begin8-.Lfunc_begin8    # >> Call Site 1 <<
	.uleb128 .Ltmp56-.Lfunc_begin8          #   Call between .Lfunc_begin8 and .Ltmp56
	.byte	0                               #     has no landing pad
	.byte	0                               #   On action: cleanup
	.uleb128 .Ltmp56-.Lfunc_begin8          # >> Call Site 2 <<
	.uleb128 .Ltmp59-.Ltmp56                #   Call between .Ltmp56 and .Ltmp59
	.uleb128 .Ltmp60-.Lfunc_begin8          #     jumps to .Ltmp60
	.byte	3                               #   On action: 2
	.uleb128 .Ltmp61-.Lfunc_begin8          # >> Call Site 3 <<
	.uleb128 .Ltmp62-.Ltmp61                #   Call between .Ltmp61 and .Ltmp62
	.uleb128 .Ltmp63-.Lfunc_begin8          #     jumps to .Ltmp63
	.byte	3                               #   On action: 2
	.uleb128 .Ltmp64-.Lfunc_begin8          # >> Call Site 4 <<
	.uleb128 .Ltmp65-.Ltmp64                #   Call between .Ltmp64 and .Ltmp65
	.uleb128 .Ltmp66-.Lfunc_begin8          #     jumps to .Ltmp66
	.byte	3                               #   On action: 2
	.uleb128 .Ltmp67-.Lfunc_begin8          # >> Call Site 5 <<
	.uleb128 .Ltmp70-.Ltmp67                #   Call between .Ltmp67 and .Ltmp70
	.uleb128 .Ltmp114-.Lfunc_begin8         #     jumps to .Ltmp114
	.byte	3                               #   On action: 2
	.uleb128 .Ltmp71-.Lfunc_begin8          # >> Call Site 6 <<
	.uleb128 .Ltmp72-.Ltmp71                #   Call between .Ltmp71 and .Ltmp72
	.uleb128 .Ltmp73-.Lfunc_begin8          #     jumps to .Ltmp73
	.byte	3                               #   On action: 2
	.uleb128 .Ltmp74-.Lfunc_begin8          # >> Call Site 7 <<
	.uleb128 .Ltmp79-.Ltmp74                #   Call between .Ltmp74 and .Ltmp79
	.uleb128 .Ltmp114-.Lfunc_begin8         #     jumps to .Ltmp114
	.byte	3                               #   On action: 2
	.uleb128 .Ltmp80-.Lfunc_begin8          # >> Call Site 8 <<
	.uleb128 .Ltmp81-.Ltmp80                #   Call between .Ltmp80 and .Ltmp81
	.uleb128 .Ltmp82-.Lfunc_begin8          #     jumps to .Ltmp82
	.byte	3                               #   On action: 2
	.uleb128 .Ltmp83-.Lfunc_begin8          # >> Call Site 9 <<
	.uleb128 .Ltmp86-.Ltmp83                #   Call between .Ltmp83 and .Ltmp86
	.uleb128 .Ltmp87-.Lfunc_begin8          #     jumps to .Ltmp87
	.byte	3                               #   On action: 2
	.uleb128 .Ltmp88-.Lfunc_begin8          # >> Call Site 10 <<
	.uleb128 .Ltmp89-.Ltmp88                #   Call between .Ltmp88 and .Ltmp89
	.uleb128 .Ltmp114-.Lfunc_begin8         #     jumps to .Ltmp114
	.byte	3                               #   On action: 2
	.uleb128 .Ltmp90-.Lfunc_begin8          # >> Call Site 11 <<
	.uleb128 .Ltmp93-.Ltmp90                #   Call between .Ltmp90 and .Ltmp93
	.uleb128 .Ltmp94-.Lfunc_begin8          #     jumps to .Ltmp94
	.byte	3                               #   On action: 2
	.uleb128 .Ltmp95-.Lfunc_begin8          # >> Call Site 12 <<
	.uleb128 .Ltmp96-.Ltmp95                #   Call between .Ltmp95 and .Ltmp96
	.uleb128 .Ltmp114-.Lfunc_begin8         #     jumps to .Ltmp114
	.byte	3                               #   On action: 2
	.uleb128 .Ltmp97-.Lfunc_begin8          # >> Call Site 13 <<
	.uleb128 .Ltmp100-.Ltmp97               #   Call between .Ltmp97 and .Ltmp100
	.uleb128 .Ltmp101-.Lfunc_begin8         #     jumps to .Ltmp101
	.byte	3                               #   On action: 2
	.uleb128 .Ltmp102-.Lfunc_begin8         # >> Call Site 14 <<
	.uleb128 .Ltmp103-.Ltmp102              #   Call between .Ltmp102 and .Ltmp103
	.uleb128 .Ltmp114-.Lfunc_begin8         #     jumps to .Ltmp114
	.byte	3                               #   On action: 2
	.uleb128 .Ltmp104-.Lfunc_begin8         # >> Call Site 15 <<
	.uleb128 .Ltmp105-.Ltmp104              #   Call between .Ltmp104 and .Ltmp105
	.uleb128 .Ltmp106-.Lfunc_begin8         #     jumps to .Ltmp106
	.byte	3                               #   On action: 2
	.uleb128 .Ltmp107-.Lfunc_begin8         # >> Call Site 16 <<
	.uleb128 .Ltmp110-.Ltmp107              #   Call between .Ltmp107 and .Ltmp110
	.uleb128 .Ltmp111-.Lfunc_begin8         #     jumps to .Ltmp111
	.byte	3                               #   On action: 2
	.uleb128 .Ltmp112-.Lfunc_begin8         # >> Call Site 17 <<
	.uleb128 .Ltmp113-.Ltmp112              #   Call between .Ltmp112 and .Ltmp113
	.uleb128 .Ltmp114-.Lfunc_begin8         #     jumps to .Ltmp114
	.byte	3                               #   On action: 2
	.uleb128 .Ltmp115-.Lfunc_begin8         # >> Call Site 18 <<
	.uleb128 .Ltmp118-.Ltmp115              #   Call between .Ltmp115 and .Ltmp118
	.uleb128 .Ltmp119-.Lfunc_begin8         #     jumps to .Ltmp119
	.byte	3                               #   On action: 2
	.uleb128 .Ltmp120-.Lfunc_begin8         # >> Call Site 19 <<
	.uleb128 .Ltmp123-.Ltmp120              #   Call between .Ltmp120 and .Ltmp123
	.uleb128 .Ltmp124-.Lfunc_begin8         #     jumps to .Ltmp124
	.byte	3                               #   On action: 2
	.uleb128 .Ltmp125-.Lfunc_begin8         # >> Call Site 20 <<
	.uleb128 .Ltmp164-.Ltmp125              #   Call between .Ltmp125 and .Ltmp164
	.uleb128 .Ltmp185-.Lfunc_begin8         #     jumps to .Ltmp185
	.byte	3                               #   On action: 2
	.uleb128 .Ltmp165-.Lfunc_begin8         # >> Call Site 21 <<
	.uleb128 .Ltmp166-.Ltmp165              #   Call between .Ltmp165 and .Ltmp166
	.uleb128 .Ltmp167-.Lfunc_begin8         #     jumps to .Ltmp167
	.byte	3                               #   On action: 2
	.uleb128 .Ltmp168-.Lfunc_begin8         # >> Call Site 22 <<
	.uleb128 .Ltmp171-.Ltmp168              #   Call between .Ltmp168 and .Ltmp171
	.uleb128 .Ltmp172-.Lfunc_begin8         #     jumps to .Ltmp172
	.byte	3                               #   On action: 2
	.uleb128 .Ltmp173-.Lfunc_begin8         # >> Call Site 23 <<
	.uleb128 .Ltmp174-.Ltmp173              #   Call between .Ltmp173 and .Ltmp174
	.uleb128 .Ltmp185-.Lfunc_begin8         #     jumps to .Ltmp185
	.byte	3                               #   On action: 2
	.uleb128 .Ltmp175-.Lfunc_begin8         # >> Call Site 24 <<
	.uleb128 .Ltmp176-.Ltmp175              #   Call between .Ltmp175 and .Ltmp176
	.uleb128 .Ltmp177-.Lfunc_begin8         #     jumps to .Ltmp177
	.byte	3                               #   On action: 2
	.uleb128 .Ltmp178-.Lfunc_begin8         # >> Call Site 25 <<
	.uleb128 .Ltmp181-.Ltmp178              #   Call between .Ltmp178 and .Ltmp181
	.uleb128 .Ltmp182-.Lfunc_begin8         #     jumps to .Ltmp182
	.byte	3                               #   On action: 2
	.uleb128 .Ltmp183-.Lfunc_begin8         # >> Call Site 26 <<
	.uleb128 .Ltmp184-.Ltmp183              #   Call between .Ltmp183 and .Ltmp184
	.uleb128 .Ltmp185-.Lfunc_begin8         #     jumps to .Ltmp185
	.byte	3                               #   On action: 2
	.uleb128 .Ltmp186-.Lfunc_begin8         # >> Call Site 27 <<
	.uleb128 .Ltmp187-.Ltmp186              #   Call between .Ltmp186 and .Ltmp187
	.uleb128 .Ltmp188-.Lfunc_begin8         #     jumps to .Ltmp188
	.byte	3                               #   On action: 2
	.uleb128 .Ltmp189-.Lfunc_begin8         # >> Call Site 28 <<
	.uleb128 .Ltmp192-.Ltmp189              #   Call between .Ltmp189 and .Ltmp192
	.uleb128 .Ltmp193-.Lfunc_begin8         #     jumps to .Ltmp193
	.byte	3                               #   On action: 2
	.uleb128 .Ltmp127-.Lfunc_begin8         # >> Call Site 29 <<
	.uleb128 .Ltmp128-.Ltmp127              #   Call between .Ltmp127 and .Ltmp128
	.uleb128 .Ltmp185-.Lfunc_begin8         #     jumps to .Ltmp185
	.byte	3                               #   On action: 2
	.uleb128 .Ltmp129-.Lfunc_begin8         # >> Call Site 30 <<
	.uleb128 .Ltmp132-.Ltmp129              #   Call between .Ltmp129 and .Ltmp132
	.uleb128 .Ltmp133-.Lfunc_begin8         #     jumps to .Ltmp133
	.byte	3                               #   On action: 2
	.uleb128 .Ltmp134-.Lfunc_begin8         # >> Call Site 31 <<
	.uleb128 .Ltmp137-.Ltmp134              #   Call between .Ltmp134 and .Ltmp137
	.uleb128 .Ltmp138-.Lfunc_begin8         #     jumps to .Ltmp138
	.byte	3                               #   On action: 2
	.uleb128 .Ltmp139-.Lfunc_begin8         # >> Call Site 32 <<
	.uleb128 .Ltmp146-.Ltmp139              #   Call between .Ltmp139 and .Ltmp146
	.uleb128 .Ltmp147-.Lfunc_begin8         #     jumps to .Ltmp147
	.byte	3                               #   On action: 2
	.uleb128 .Ltmp148-.Lfunc_begin8         # >> Call Site 33 <<
	.uleb128 .Ltmp149-.Ltmp148              #   Call between .Ltmp148 and .Ltmp149
	.uleb128 .Ltmp150-.Lfunc_begin8         #     jumps to .Ltmp150
	.byte	3                               #   On action: 2
	.uleb128 .Ltmp151-.Lfunc_begin8         # >> Call Site 34 <<
	.uleb128 .Ltmp154-.Ltmp151              #   Call between .Ltmp151 and .Ltmp154
	.uleb128 .Ltmp155-.Lfunc_begin8         #     jumps to .Ltmp155
	.byte	3                               #   On action: 2
	.uleb128 .Ltmp156-.Lfunc_begin8         # >> Call Site 35 <<
	.uleb128 .Ltmp159-.Ltmp156              #   Call between .Ltmp156 and .Ltmp159
	.uleb128 .Ltmp160-.Lfunc_begin8         #     jumps to .Ltmp160
	.byte	3                               #   On action: 2
	.uleb128 .Ltmp143-.Lfunc_begin8         # >> Call Site 36 <<
	.uleb128 .Ltmp144-.Ltmp143              #   Call between .Ltmp143 and .Ltmp144
	.uleb128 .Ltmp147-.Lfunc_begin8         #     jumps to .Ltmp147
	.byte	3                               #   On action: 2
	.uleb128 .Ltmp144-.Lfunc_begin8         # >> Call Site 37 <<
	.uleb128 .Ltmp194-.Ltmp144              #   Call between .Ltmp144 and .Ltmp194
	.byte	0                               #     has no landing pad
	.byte	0                               #   On action: cleanup
	.uleb128 .Ltmp194-.Lfunc_begin8         # >> Call Site 38 <<
	.uleb128 .Ltmp195-.Ltmp194              #   Call between .Ltmp194 and .Ltmp195
	.uleb128 .Ltmp202-.Lfunc_begin8         #     jumps to .Ltmp202
	.byte	0                               #   On action: cleanup
	.uleb128 .Ltmp195-.Lfunc_begin8         # >> Call Site 39 <<
	.uleb128 .Ltmp196-.Ltmp195              #   Call between .Ltmp195 and .Ltmp196
	.byte	0                               #     has no landing pad
	.byte	0                               #   On action: cleanup
	.uleb128 .Ltmp196-.Lfunc_begin8         # >> Call Site 40 <<
	.uleb128 .Ltmp201-.Ltmp196              #   Call between .Ltmp196 and .Ltmp201
	.uleb128 .Ltmp202-.Lfunc_begin8         #     jumps to .Ltmp202
	.byte	0                               #   On action: cleanup
	.uleb128 .Ltmp206-.Lfunc_begin8         # >> Call Site 41 <<
	.uleb128 .Ltmp209-.Ltmp206              #   Call between .Ltmp206 and .Ltmp209
	.uleb128 .Ltmp210-.Lfunc_begin8         #     jumps to .Ltmp210
	.byte	0                               #   On action: cleanup
	.uleb128 .Ltmp203-.Lfunc_begin8         # >> Call Site 42 <<
	.uleb128 .Ltmp204-.Ltmp203              #   Call between .Ltmp203 and .Ltmp204
	.uleb128 .Ltmp205-.Lfunc_begin8         #     jumps to .Ltmp205
	.byte	5                               #   On action: 3
	.uleb128 .Ltmp204-.Lfunc_begin8         # >> Call Site 43 <<
	.uleb128 .Lfunc_end49-.Ltmp204          #   Call between .Ltmp204 and .Lfunc_end49
	.byte	0                               #     has no landing pad
	.byte	0                               #   On action: cleanup
.Lcst_end8:
	.byte	0                               # >> Action Record 1 <<
                                        #   Cleanup
	.byte	0                               #   No further actions
	.byte	1                               # >> Action Record 2 <<
                                        #   Catch TypeInfo 1
	.byte	125                             #   Continue to action 1
	.byte	2                               # >> Action Record 3 <<
                                        #   Catch TypeInfo 2
	.byte	0                               #   No further actions
	.p2align	2, 0x0
                                        # >> Catch TypeInfos <<
	.long	0                               # TypeInfo 2
.Ltmp211:                               # TypeInfo 1
	.long	.L_ZTIN3sql12SQLExceptionE.DW.stub-.Ltmp211
.Lttbase3:
	.p2align	2, 0x0
                                        # -- End function
	.section	.text._ZNKSt10unique_ptrIN3sql10ConnectionESt14default_deleteIS1_EEptEv,"axG",@progbits,_ZNKSt10unique_ptrIN3sql10ConnectionESt14default_deleteIS1_EEptEv,comdat
	.weak	_ZNKSt10unique_ptrIN3sql10ConnectionESt14default_deleteIS1_EEptEv # -- Begin function _ZNKSt10unique_ptrIN3sql10ConnectionESt14default_deleteIS1_EEptEv
	.p2align	4, 0x90
	.type	_ZNKSt10unique_ptrIN3sql10ConnectionESt14default_deleteIS1_EEptEv,@function
_ZNKSt10unique_ptrIN3sql10ConnectionESt14default_deleteIS1_EEptEv: # @_ZNKSt10unique_ptrIN3sql10ConnectionESt14default_deleteIS1_EEptEv
	.cfi_startproc
# %bb.0:
	pushq	%rbp
	.cfi_def_cfa_offset 16
	.cfi_offset %rbp, -16
	movq	%rsp, %rbp
	.cfi_def_cfa_register %rbp
	subq	$16, %rsp
	movq	%rdi, -8(%rbp)
	movq	-8(%rbp), %rdi
	callq	_ZNKSt10unique_ptrIN3sql10ConnectionESt14default_deleteIS1_EE3getEv
	addq	$16, %rsp
	popq	%rbp
	.cfi_def_cfa %rsp, 8
	retq
.Lfunc_end50:
	.size	_ZNKSt10unique_ptrIN3sql10ConnectionESt14default_deleteIS1_EEptEv, .Lfunc_end50-_ZNKSt10unique_ptrIN3sql10ConnectionESt14default_deleteIS1_EEptEv
	.cfi_endproc
                                        # -- End function
	.section	.text._ZNSt10shared_ptrIN3sql9StatementEEC2IS1_vEEPT_,"axG",@progbits,_ZNSt10shared_ptrIN3sql9StatementEEC2IS1_vEEPT_,comdat
	.weak	_ZNSt10shared_ptrIN3sql9StatementEEC2IS1_vEEPT_ # -- Begin function _ZNSt10shared_ptrIN3sql9StatementEEC2IS1_vEEPT_
	.p2align	4, 0x90
	.type	_ZNSt10shared_ptrIN3sql9StatementEEC2IS1_vEEPT_,@function
_ZNSt10shared_ptrIN3sql9StatementEEC2IS1_vEEPT_: # @_ZNSt10shared_ptrIN3sql9StatementEEC2IS1_vEEPT_
	.cfi_startproc
# %bb.0:
	pushq	%rbp
	.cfi_def_cfa_offset 16
	.cfi_offset %rbp, -16
	movq	%rsp, %rbp
	.cfi_def_cfa_register %rbp
	subq	$16, %rsp
	movq	%rdi, -8(%rbp)
	movq	%rsi, -16(%rbp)
	movq	-8(%rbp), %rdi
	movq	-16(%rbp), %rsi
	callq	_ZNSt12__shared_ptrIN3sql9StatementELN9__gnu_cxx12_Lock_policyE2EEC2IS1_vEEPT_
	addq	$16, %rsp
	popq	%rbp
	.cfi_def_cfa %rsp, 8
	retq
.Lfunc_end51:
	.size	_ZNSt10shared_ptrIN3sql9StatementEEC2IS1_vEEPT_, .Lfunc_end51-_ZNSt10shared_ptrIN3sql9StatementEEC2IS1_vEEPT_
	.cfi_endproc
                                        # -- End function
	.section	.text._ZNKSt19__shared_ptr_accessIN3sql9StatementELN9__gnu_cxx12_Lock_policyE2ELb0ELb0EEptEv,"axG",@progbits,_ZNKSt19__shared_ptr_accessIN3sql9StatementELN9__gnu_cxx12_Lock_policyE2ELb0ELb0EEptEv,comdat
	.weak	_ZNKSt19__shared_ptr_accessIN3sql9StatementELN9__gnu_cxx12_Lock_policyE2ELb0ELb0EEptEv # -- Begin function _ZNKSt19__shared_ptr_accessIN3sql9StatementELN9__gnu_cxx12_Lock_policyE2ELb0ELb0EEptEv
	.p2align	4, 0x90
	.type	_ZNKSt19__shared_ptr_accessIN3sql9StatementELN9__gnu_cxx12_Lock_policyE2ELb0ELb0EEptEv,@function
_ZNKSt19__shared_ptr_accessIN3sql9StatementELN9__gnu_cxx12_Lock_policyE2ELb0ELb0EEptEv: # @_ZNKSt19__shared_ptr_accessIN3sql9StatementELN9__gnu_cxx12_Lock_policyE2ELb0ELb0EEptEv
	.cfi_startproc
# %bb.0:
	pushq	%rbp
	.cfi_def_cfa_offset 16
	.cfi_offset %rbp, -16
	movq	%rsp, %rbp
	.cfi_def_cfa_register %rbp
	subq	$16, %rsp
	movq	%rdi, -8(%rbp)
	movq	-8(%rbp), %rdi
	callq	_ZNKSt19__shared_ptr_accessIN3sql9StatementELN9__gnu_cxx12_Lock_policyE2ELb0ELb0EE6_M_getEv
	addq	$16, %rsp
	popq	%rbp
	.cfi_def_cfa %rsp, 8
	retq
.Lfunc_end52:
	.size	_ZNKSt19__shared_ptr_accessIN3sql9StatementELN9__gnu_cxx12_Lock_policyE2ELb0ELb0EEptEv, .Lfunc_end52-_ZNKSt19__shared_ptr_accessIN3sql9StatementELN9__gnu_cxx12_Lock_policyE2ELb0ELb0EEptEv
	.cfi_endproc
                                        # -- End function
	.section	.text._ZNSt10unique_ptrIN3sql9ResultSetESt14default_deleteIS1_EEC2IS3_vEEPS1_,"axG",@progbits,_ZNSt10unique_ptrIN3sql9ResultSetESt14default_deleteIS1_EEC2IS3_vEEPS1_,comdat
	.weak	_ZNSt10unique_ptrIN3sql9ResultSetESt14default_deleteIS1_EEC2IS3_vEEPS1_ # -- Begin function _ZNSt10unique_ptrIN3sql9ResultSetESt14default_deleteIS1_EEC2IS3_vEEPS1_
	.p2align	4, 0x90
	.type	_ZNSt10unique_ptrIN3sql9ResultSetESt14default_deleteIS1_EEC2IS3_vEEPS1_,@function
_ZNSt10unique_ptrIN3sql9ResultSetESt14default_deleteIS1_EEC2IS3_vEEPS1_: # @_ZNSt10unique_ptrIN3sql9ResultSetESt14default_deleteIS1_EEC2IS3_vEEPS1_
.Lfunc_begin9:
	.cfi_startproc
	.cfi_personality 155, DW.ref.__gxx_personality_v0
	.cfi_lsda 27, .Lexception9
# %bb.0:
	pushq	%rbp
	.cfi_def_cfa_offset 16
	.cfi_offset %rbp, -16
	movq	%rsp, %rbp
	.cfi_def_cfa_register %rbp
	subq	$16, %rsp
	movq	%rdi, -8(%rbp)
	movq	%rsi, -16(%rbp)
	movq	-8(%rbp), %rdi
	movq	-16(%rbp), %rsi
.Ltmp212:
	callq	_ZNSt15__uniq_ptr_dataIN3sql9ResultSetESt14default_deleteIS1_ELb1ELb1EECI2St15__uniq_ptr_implIS1_S3_EEPS1_
.Ltmp213:
	jmp	.LBB53_1
.LBB53_1:
	addq	$16, %rsp
	popq	%rbp
	.cfi_def_cfa %rsp, 8
	retq
.LBB53_2:
	.cfi_def_cfa %rbp, 16
.Ltmp214:
	movq	%rax, %rdi
                                        # kill: def $eax killed $edx killed $rdx
	callq	__clang_call_terminate
.Lfunc_end53:
	.size	_ZNSt10unique_ptrIN3sql9ResultSetESt14default_deleteIS1_EEC2IS3_vEEPS1_, .Lfunc_end53-_ZNSt10unique_ptrIN3sql9ResultSetESt14default_deleteIS1_EEC2IS3_vEEPS1_
	.cfi_endproc
	.section	.gcc_except_table._ZNSt10unique_ptrIN3sql9ResultSetESt14default_deleteIS1_EEC2IS3_vEEPS1_,"aG",@progbits,_ZNSt10unique_ptrIN3sql9ResultSetESt14default_deleteIS1_EEC2IS3_vEEPS1_,comdat
	.p2align	2, 0x0
GCC_except_table53:
.Lexception9:
	.byte	255                             # @LPStart Encoding = omit
	.byte	155                             # @TType Encoding = indirect pcrel sdata4
	.uleb128 .Lttbase4-.Lttbaseref4
.Lttbaseref4:
	.byte	1                               # Call site Encoding = uleb128
	.uleb128 .Lcst_end9-.Lcst_begin9
.Lcst_begin9:
	.uleb128 .Ltmp212-.Lfunc_begin9         # >> Call Site 1 <<
	.uleb128 .Ltmp213-.Ltmp212              #   Call between .Ltmp212 and .Ltmp213
	.uleb128 .Ltmp214-.Lfunc_begin9         #     jumps to .Ltmp214
	.byte	1                               #   On action: 1
.Lcst_end9:
	.byte	1                               # >> Action Record 1 <<
                                        #   Catch TypeInfo 1
	.byte	0                               #   No further actions
	.p2align	2, 0x0
                                        # >> Catch TypeInfos <<
	.long	0                               # TypeInfo 1
.Lttbase4:
	.p2align	2, 0x0
                                        # -- End function
	.section	.text._ZNKSt10unique_ptrIN3sql9ResultSetESt14default_deleteIS1_EEptEv,"axG",@progbits,_ZNKSt10unique_ptrIN3sql9ResultSetESt14default_deleteIS1_EEptEv,comdat
	.weak	_ZNKSt10unique_ptrIN3sql9ResultSetESt14default_deleteIS1_EEptEv # -- Begin function _ZNKSt10unique_ptrIN3sql9ResultSetESt14default_deleteIS1_EEptEv
	.p2align	4, 0x90
	.type	_ZNKSt10unique_ptrIN3sql9ResultSetESt14default_deleteIS1_EEptEv,@function
_ZNKSt10unique_ptrIN3sql9ResultSetESt14default_deleteIS1_EEptEv: # @_ZNKSt10unique_ptrIN3sql9ResultSetESt14default_deleteIS1_EEptEv
	.cfi_startproc
# %bb.0:
	pushq	%rbp
	.cfi_def_cfa_offset 16
	.cfi_offset %rbp, -16
	movq	%rsp, %rbp
	.cfi_def_cfa_register %rbp
	subq	$16, %rsp
	movq	%rdi, -8(%rbp)
	movq	-8(%rbp), %rdi
	callq	_ZNKSt10unique_ptrIN3sql9ResultSetESt14default_deleteIS1_EE3getEv
	addq	$16, %rsp
	popq	%rbp
	.cfi_def_cfa %rsp, 8
	retq
.Lfunc_end54:
	.size	_ZNKSt10unique_ptrIN3sql9ResultSetESt14default_deleteIS1_EEptEv, .Lfunc_end54-_ZNKSt10unique_ptrIN3sql9ResultSetESt14default_deleteIS1_EEptEv
	.cfi_endproc
                                        # -- End function
	.section	.text._ZNSt10shared_ptrIN3sql17PreparedStatementEEC2IS1_vEEPT_,"axG",@progbits,_ZNSt10shared_ptrIN3sql17PreparedStatementEEC2IS1_vEEPT_,comdat
	.weak	_ZNSt10shared_ptrIN3sql17PreparedStatementEEC2IS1_vEEPT_ # -- Begin function _ZNSt10shared_ptrIN3sql17PreparedStatementEEC2IS1_vEEPT_
	.p2align	4, 0x90
	.type	_ZNSt10shared_ptrIN3sql17PreparedStatementEEC2IS1_vEEPT_,@function
_ZNSt10shared_ptrIN3sql17PreparedStatementEEC2IS1_vEEPT_: # @_ZNSt10shared_ptrIN3sql17PreparedStatementEEC2IS1_vEEPT_
	.cfi_startproc
# %bb.0:
	pushq	%rbp
	.cfi_def_cfa_offset 16
	.cfi_offset %rbp, -16
	movq	%rsp, %rbp
	.cfi_def_cfa_register %rbp
	subq	$16, %rsp
	movq	%rdi, -8(%rbp)
	movq	%rsi, -16(%rbp)
	movq	-8(%rbp), %rdi
	movq	-16(%rbp), %rsi
	callq	_ZNSt12__shared_ptrIN3sql17PreparedStatementELN9__gnu_cxx12_Lock_policyE2EEC2IS1_vEEPT_
	addq	$16, %rsp
	popq	%rbp
	.cfi_def_cfa %rsp, 8
	retq
.Lfunc_end55:
	.size	_ZNSt10shared_ptrIN3sql17PreparedStatementEEC2IS1_vEEPT_, .Lfunc_end55-_ZNSt10shared_ptrIN3sql17PreparedStatementEEC2IS1_vEEPT_
	.cfi_endproc
                                        # -- End function
	.section	.text._ZNKSt19__shared_ptr_accessIN3sql17PreparedStatementELN9__gnu_cxx12_Lock_policyE2ELb0ELb0EEptEv,"axG",@progbits,_ZNKSt19__shared_ptr_accessIN3sql17PreparedStatementELN9__gnu_cxx12_Lock_policyE2ELb0ELb0EEptEv,comdat
	.weak	_ZNKSt19__shared_ptr_accessIN3sql17PreparedStatementELN9__gnu_cxx12_Lock_policyE2ELb0ELb0EEptEv # -- Begin function _ZNKSt19__shared_ptr_accessIN3sql17PreparedStatementELN9__gnu_cxx12_Lock_policyE2ELb0ELb0EEptEv
	.p2align	4, 0x90
	.type	_ZNKSt19__shared_ptr_accessIN3sql17PreparedStatementELN9__gnu_cxx12_Lock_policyE2ELb0ELb0EEptEv,@function
_ZNKSt19__shared_ptr_accessIN3sql17PreparedStatementELN9__gnu_cxx12_Lock_policyE2ELb0ELb0EEptEv: # @_ZNKSt19__shared_ptr_accessIN3sql17PreparedStatementELN9__gnu_cxx12_Lock_policyE2ELb0ELb0EEptEv
	.cfi_startproc
# %bb.0:
	pushq	%rbp
	.cfi_def_cfa_offset 16
	.cfi_offset %rbp, -16
	movq	%rsp, %rbp
	.cfi_def_cfa_register %rbp
	subq	$16, %rsp
	movq	%rdi, -8(%rbp)
	movq	-8(%rbp), %rdi
	callq	_ZNKSt19__shared_ptr_accessIN3sql17PreparedStatementELN9__gnu_cxx12_Lock_policyE2ELb0ELb0EE6_M_getEv
	addq	$16, %rsp
	popq	%rbp
	.cfi_def_cfa %rsp, 8
	retq
.Lfunc_end56:
	.size	_ZNKSt19__shared_ptr_accessIN3sql17PreparedStatementELN9__gnu_cxx12_Lock_policyE2ELb0ELb0EEptEv, .Lfunc_end56-_ZNKSt19__shared_ptr_accessIN3sql17PreparedStatementELN9__gnu_cxx12_Lock_policyE2ELb0ELb0EEptEv
	.cfi_endproc
                                        # -- End function
	.section	.text._ZNSt10unique_ptrIN3sql9ResultSetESt14default_deleteIS1_EED2Ev,"axG",@progbits,_ZNSt10unique_ptrIN3sql9ResultSetESt14default_deleteIS1_EED2Ev,comdat
	.weak	_ZNSt10unique_ptrIN3sql9ResultSetESt14default_deleteIS1_EED2Ev # -- Begin function _ZNSt10unique_ptrIN3sql9ResultSetESt14default_deleteIS1_EED2Ev
	.p2align	4, 0x90
	.type	_ZNSt10unique_ptrIN3sql9ResultSetESt14default_deleteIS1_EED2Ev,@function
_ZNSt10unique_ptrIN3sql9ResultSetESt14default_deleteIS1_EED2Ev: # @_ZNSt10unique_ptrIN3sql9ResultSetESt14default_deleteIS1_EED2Ev
.Lfunc_begin10:
	.cfi_startproc
	.cfi_personality 155, DW.ref.__gxx_personality_v0
	.cfi_lsda 27, .Lexception10
# %bb.0:
	pushq	%rbp
	.cfi_def_cfa_offset 16
	.cfi_offset %rbp, -16
	movq	%rsp, %rbp
	.cfi_def_cfa_register %rbp
	subq	$32, %rsp
	movq	%rdi, -8(%rbp)
	movq	-8(%rbp), %rdi
	movq	%rdi, -24(%rbp)                 # 8-byte Spill
	callq	_ZNSt15__uniq_ptr_implIN3sql9ResultSetESt14default_deleteIS1_EE6_M_ptrEv
	movq	%rax, -16(%rbp)
	movq	-16(%rbp), %rax
	cmpq	$0, (%rax)
	je	.LBB57_3
# %bb.1:
	movq	-24(%rbp), %rdi                 # 8-byte Reload
	callq	_ZNSt10unique_ptrIN3sql9ResultSetESt14default_deleteIS1_EE11get_deleterEv
	movq	%rax, %rdi
	movq	-16(%rbp), %rax
	movq	(%rax), %rsi
.Ltmp215:
	callq	_ZNKSt14default_deleteIN3sql9ResultSetEEclEPS1_
.Ltmp216:
	jmp	.LBB57_2
.LBB57_2:
	jmp	.LBB57_3
.LBB57_3:
	movq	-16(%rbp), %rax
	movq	$0, (%rax)
	addq	$32, %rsp
	popq	%rbp
	.cfi_def_cfa %rsp, 8
	retq
.LBB57_4:
	.cfi_def_cfa %rbp, 16
.Ltmp217:
	movq	%rax, %rdi
                                        # kill: def $eax killed $edx killed $rdx
	callq	__clang_call_terminate
.Lfunc_end57:
	.size	_ZNSt10unique_ptrIN3sql9ResultSetESt14default_deleteIS1_EED2Ev, .Lfunc_end57-_ZNSt10unique_ptrIN3sql9ResultSetESt14default_deleteIS1_EED2Ev
	.cfi_endproc
	.section	.gcc_except_table._ZNSt10unique_ptrIN3sql9ResultSetESt14default_deleteIS1_EED2Ev,"aG",@progbits,_ZNSt10unique_ptrIN3sql9ResultSetESt14default_deleteIS1_EED2Ev,comdat
	.p2align	2, 0x0
GCC_except_table57:
.Lexception10:
	.byte	255                             # @LPStart Encoding = omit
	.byte	155                             # @TType Encoding = indirect pcrel sdata4
	.uleb128 .Lttbase5-.Lttbaseref5
.Lttbaseref5:
	.byte	1                               # Call site Encoding = uleb128
	.uleb128 .Lcst_end10-.Lcst_begin10
.Lcst_begin10:
	.uleb128 .Ltmp215-.Lfunc_begin10        # >> Call Site 1 <<
	.uleb128 .Ltmp216-.Ltmp215              #   Call between .Ltmp215 and .Ltmp216
	.uleb128 .Ltmp217-.Lfunc_begin10        #     jumps to .Ltmp217
	.byte	1                               #   On action: 1
.Lcst_end10:
	.byte	1                               # >> Action Record 1 <<
                                        #   Catch TypeInfo 1
	.byte	0                               #   No further actions
	.p2align	2, 0x0
                                        # >> Catch TypeInfos <<
	.long	0                               # TypeInfo 1
.Lttbase5:
	.p2align	2, 0x0
                                        # -- End function
	.section	.text._ZNSt10shared_ptrIN3sql17PreparedStatementEED2Ev,"axG",@progbits,_ZNSt10shared_ptrIN3sql17PreparedStatementEED2Ev,comdat
	.weak	_ZNSt10shared_ptrIN3sql17PreparedStatementEED2Ev # -- Begin function _ZNSt10shared_ptrIN3sql17PreparedStatementEED2Ev
	.p2align	4, 0x90
	.type	_ZNSt10shared_ptrIN3sql17PreparedStatementEED2Ev,@function
_ZNSt10shared_ptrIN3sql17PreparedStatementEED2Ev: # @_ZNSt10shared_ptrIN3sql17PreparedStatementEED2Ev
	.cfi_startproc
# %bb.0:
	pushq	%rbp
	.cfi_def_cfa_offset 16
	.cfi_offset %rbp, -16
	movq	%rsp, %rbp
	.cfi_def_cfa_register %rbp
	subq	$16, %rsp
	movq	%rdi, -8(%rbp)
	movq	-8(%rbp), %rdi
	callq	_ZNSt12__shared_ptrIN3sql17PreparedStatementELN9__gnu_cxx12_Lock_policyE2EED2Ev
	addq	$16, %rsp
	popq	%rbp
	.cfi_def_cfa %rsp, 8
	retq
.Lfunc_end58:
	.size	_ZNSt10shared_ptrIN3sql17PreparedStatementEED2Ev, .Lfunc_end58-_ZNSt10shared_ptrIN3sql17PreparedStatementEED2Ev
	.cfi_endproc
                                        # -- End function
	.section	.text._ZNSt10shared_ptrIN3sql9StatementEED2Ev,"axG",@progbits,_ZNSt10shared_ptrIN3sql9StatementEED2Ev,comdat
	.weak	_ZNSt10shared_ptrIN3sql9StatementEED2Ev # -- Begin function _ZNSt10shared_ptrIN3sql9StatementEED2Ev
	.p2align	4, 0x90
	.type	_ZNSt10shared_ptrIN3sql9StatementEED2Ev,@function
_ZNSt10shared_ptrIN3sql9StatementEED2Ev: # @_ZNSt10shared_ptrIN3sql9StatementEED2Ev
	.cfi_startproc
# %bb.0:
	pushq	%rbp
	.cfi_def_cfa_offset 16
	.cfi_offset %rbp, -16
	movq	%rsp, %rbp
	.cfi_def_cfa_register %rbp
	subq	$16, %rsp
	movq	%rdi, -8(%rbp)
	movq	-8(%rbp), %rdi
	callq	_ZNSt12__shared_ptrIN3sql9StatementELN9__gnu_cxx12_Lock_policyE2EED2Ev
	addq	$16, %rsp
	popq	%rbp
	.cfi_def_cfa %rsp, 8
	retq
.Lfunc_end59:
	.size	_ZNSt10shared_ptrIN3sql9StatementEED2Ev, .Lfunc_end59-_ZNSt10shared_ptrIN3sql9StatementEED2Ev
	.cfi_endproc
                                        # -- End function
	.text
	.globl	_Z15list_by_materiaNSt7__cxx1112basic_stringIcSt11char_traitsIcESaIcEEE # -- Begin function _Z15list_by_materiaNSt7__cxx1112basic_stringIcSt11char_traitsIcESaIcEEE
	.p2align	4, 0x90
	.type	_Z15list_by_materiaNSt7__cxx1112basic_stringIcSt11char_traitsIcESaIcEEE,@function
_Z15list_by_materiaNSt7__cxx1112basic_stringIcSt11char_traitsIcESaIcEEE: # @_Z15list_by_materiaNSt7__cxx1112basic_stringIcSt11char_traitsIcESaIcEEE
.Lfunc_begin11:
	.cfi_startproc
	.cfi_personality 155, DW.ref.__gxx_personality_v0
	.cfi_lsda 27, .Lexception11
# %bb.0:
	pushq	%rbp
	.cfi_def_cfa_offset 16
	.cfi_offset %rbp, -16
	movq	%rsp, %rbp
	.cfi_def_cfa_register %rbp
	subq	$192, %rsp
	movq	%rdi, -120(%rbp)                # 8-byte Spill
	movq	%fs:40, %rax
	movq	%rax, -8(%rbp)
	movq	%rdi, -72(%rbp)
	leaq	-16(%rbp), %rdi
	movq	%rdi, -112(%rbp)                # 8-byte Spill
	callq	_Z13get_conectionv
	movq	-112(%rbp), %rdi                # 8-byte Reload
	callq	_ZNKSt10unique_ptrIN3sql10ConnectionESt14default_deleteIS1_EEptEv
	movq	%rax, -104(%rbp)                # 8-byte Spill
.Ltmp218:
	leaq	.L.str.44(%rip), %rsi
	leaq	-40(%rbp), %rdi
	callq	_ZN3sql9SQLStringC1EPKc@PLT
.Ltmp219:
	jmp	.LBB60_1
.LBB60_1:
	movq	-104(%rbp), %rdi                # 8-byte Reload
	movq	(%rdi), %rax
	movq	40(%rax), %rax
.Ltmp221:
	leaq	-40(%rbp), %rsi
	callq	*%rax
.Ltmp222:
	movq	%rax, -128(%rbp)                # 8-byte Spill
	jmp	.LBB60_2
.LBB60_2:
.Ltmp223:
	movq	-128(%rbp), %rsi                # 8-byte Reload
	leaq	-32(%rbp), %rdi
	callq	_ZNSt10shared_ptrIN3sql17PreparedStatementEEC2IS1_vEEPT_
.Ltmp224:
	jmp	.LBB60_3
.LBB60_3:
	leaq	-40(%rbp), %rdi
	callq	_ZN3sql9SQLStringD1Ev@PLT
	leaq	-32(%rbp), %rdi
	callq	_ZNKSt19__shared_ptr_accessIN3sql17PreparedStatementELN9__gnu_cxx12_Lock_policyE2ELb0ELb0EEptEv
	movq	-120(%rbp), %rsi                # 8-byte Reload
	movq	%rax, -136(%rbp)                # 8-byte Spill
.Ltmp226:
	leaq	-48(%rbp), %rdi
	callq	_ZN3sql9SQLStringC2ERKNSt7__cxx1112basic_stringIcSt11char_traitsIcESaIcEEE
.Ltmp227:
	jmp	.LBB60_4
.LBB60_4:
	movq	-136(%rbp), %rdi                # 8-byte Reload
	movq	(%rdi), %rax
	movq	520(%rax), %rax
.Ltmp228:
	movl	$1, %esi
	leaq	-48(%rbp), %rdx
	callq	*%rax
.Ltmp229:
	jmp	.LBB60_5
.LBB60_5:
	leaq	-48(%rbp), %rdi
	callq	_ZN3sql9SQLStringD1Ev@PLT
	leaq	-32(%rbp), %rdi
	callq	_ZNKSt19__shared_ptr_accessIN3sql17PreparedStatementELN9__gnu_cxx12_Lock_policyE2ELb0ELb0EEptEv
	movq	%rax, %rdi
	movq	(%rdi), %rax
	movq	456(%rax), %rax
.Ltmp231:
	callq	*%rax
.Ltmp232:
	movq	%rax, -144(%rbp)                # 8-byte Spill
	jmp	.LBB60_6
.LBB60_6:
	movq	-144(%rbp), %rsi                # 8-byte Reload
	leaq	-56(%rbp), %rdi
	callq	_ZNSt10unique_ptrIN3sql9ResultSetESt14default_deleteIS1_EEC2IS3_vEEPS1_
.LBB60_7:                               # =>This Inner Loop Header: Depth=1
	leaq	-56(%rbp), %rdi
	callq	_ZNKSt10unique_ptrIN3sql9ResultSetESt14default_deleteIS1_EEptEv
	movq	%rax, %rdi
	movq	(%rdi), %rax
	movq	24(%rax), %rax
.Ltmp234:
	callq	*%rax
.Ltmp235:
	movb	%al, -145(%rbp)                 # 1-byte Spill
	jmp	.LBB60_8
.LBB60_8:                               #   in Loop: Header=BB60_7 Depth=1
	movb	-145(%rbp), %al                 # 1-byte Reload
	testb	$1, %al
	jne	.LBB60_9
	jmp	.LBB60_19
.LBB60_9:                               #   in Loop: Header=BB60_7 Depth=1
	leaq	-56(%rbp), %rdi
	callq	_ZNKSt10unique_ptrIN3sql9ResultSetESt14default_deleteIS1_EEptEv
	movq	%rax, -160(%rbp)                # 8-byte Spill
.Ltmp236:
	leaq	.L.str.45(%rip), %rsi
	leaq	-64(%rbp), %rdi
	callq	_ZN3sql9SQLStringC1EPKc@PLT
.Ltmp237:
	jmp	.LBB60_10
.LBB60_10:                              #   in Loop: Header=BB60_7 Depth=1
	movq	-160(%rbp), %rdi                # 8-byte Reload
	movq	(%rdi), %rax
	movq	256(%rax), %rax
.Ltmp238:
	leaq	-64(%rbp), %rsi
	callq	*%rax
.Ltmp239:
	movl	%eax, -164(%rbp)                # 4-byte Spill
	jmp	.LBB60_11
.LBB60_11:                              #   in Loop: Header=BB60_7 Depth=1
	leaq	-64(%rbp), %rdi
	callq	_ZN3sql9SQLStringD1Ev@PLT
	movl	-164(%rbp), %eax                # 4-byte Reload
	movl	%eax, -88(%rbp)
	movl	-88(%rbp), %edi
.Ltmp241:
	callq	_Z10list_by_idi
.Ltmp242:
	jmp	.LBB60_12
.LBB60_12:                              #   in Loop: Header=BB60_7 Depth=1
	jmp	.LBB60_7
.LBB60_13:
.Ltmp220:
	movq	%rax, %rcx
	movl	%edx, %eax
	movq	%rcx, -80(%rbp)
	movl	%eax, -84(%rbp)
	jmp	.LBB60_22
.LBB60_14:
.Ltmp225:
	movq	%rax, %rcx
	movl	%edx, %eax
	movq	%rcx, -80(%rbp)
	movl	%eax, -84(%rbp)
	leaq	-40(%rbp), %rdi
	callq	_ZN3sql9SQLStringD1Ev@PLT
	jmp	.LBB60_22
.LBB60_15:
.Ltmp233:
	movq	%rax, %rcx
	movl	%edx, %eax
	movq	%rcx, -80(%rbp)
	movl	%eax, -84(%rbp)
	jmp	.LBB60_21
.LBB60_16:
.Ltmp230:
	movq	%rax, %rcx
	movl	%edx, %eax
	movq	%rcx, -80(%rbp)
	movl	%eax, -84(%rbp)
	leaq	-48(%rbp), %rdi
	callq	_ZN3sql9SQLStringD1Ev@PLT
	jmp	.LBB60_21
.LBB60_17:
.Ltmp243:
	movq	%rax, %rcx
	movl	%edx, %eax
	movq	%rcx, -80(%rbp)
	movl	%eax, -84(%rbp)
	jmp	.LBB60_20
.LBB60_18:
.Ltmp240:
	movq	%rax, %rcx
	movl	%edx, %eax
	movq	%rcx, -80(%rbp)
	movl	%eax, -84(%rbp)
	leaq	-64(%rbp), %rdi
	callq	_ZN3sql9SQLStringD1Ev@PLT
	jmp	.LBB60_20
.LBB60_19:
	leaq	-56(%rbp), %rdi
	callq	_ZNSt10unique_ptrIN3sql9ResultSetESt14default_deleteIS1_EED2Ev
	leaq	-32(%rbp), %rdi
	callq	_ZNSt10shared_ptrIN3sql17PreparedStatementEED2Ev
	jmp	.LBB60_28
.LBB60_20:
	leaq	-56(%rbp), %rdi
	callq	_ZNSt10unique_ptrIN3sql9ResultSetESt14default_deleteIS1_EED2Ev
.LBB60_21:
	leaq	-32(%rbp), %rdi
	callq	_ZNSt10shared_ptrIN3sql17PreparedStatementEED2Ev
.LBB60_22:
	movl	-84(%rbp), %eax
	movl	$1, %ecx
	cmpl	%ecx, %eax
	jne	.LBB60_34
# %bb.23:
	movq	-80(%rbp), %rdi
	callq	__cxa_begin_catch@PLT
	movq	%rax, -96(%rbp)
.Ltmp244:
	movq	_ZSt4cerr@GOTPCREL(%rip), %rdi
	leaq	.L.str.46(%rip), %rsi
	callq	_ZStlsISt11char_traitsIcEERSt13basic_ostreamIcT_ES5_PKc@PLT
.Ltmp245:
	movq	%rax, -176(%rbp)                # 8-byte Spill
	jmp	.LBB60_24
.LBB60_24:
	movq	-96(%rbp), %rdi
	movq	(%rdi), %rax
	movq	16(%rax), %rax
	callq	*%rax
	movq	-176(%rbp), %rdi                # 8-byte Reload
	movq	%rax, %rsi
.Ltmp246:
	callq	_ZStlsISt11char_traitsIcEERSt13basic_ostreamIcT_ES5_PKc@PLT
.Ltmp247:
	movq	%rax, -184(%rbp)                # 8-byte Spill
	jmp	.LBB60_25
.LBB60_25:
.Ltmp248:
	movq	-184(%rbp), %rdi                # 8-byte Reload
	movq	_ZSt4endlIcSt11char_traitsIcEERSt13basic_ostreamIT_T0_ES6_@GOTPCREL(%rip), %rsi
	callq	_ZNSolsEPFRSoS_E@PLT
.Ltmp249:
	jmp	.LBB60_26
.LBB60_26:
.Ltmp254:
	callq	__cxa_end_catch@PLT
.Ltmp255:
	jmp	.LBB60_27
.LBB60_27:
	jmp	.LBB60_28
.LBB60_28:
	leaq	-16(%rbp), %rdi
	callq	_ZNKSt10unique_ptrIN3sql10ConnectionESt14default_deleteIS1_EEptEv
	movq	%rax, %rdi
	movq	(%rdi), %rax
	movq	160(%rax), %rax
.Ltmp256:
	callq	*%rax
.Ltmp257:
	jmp	.LBB60_29
.LBB60_29:
	leaq	-16(%rbp), %rdi
	callq	_ZNSt10unique_ptrIN3sql10ConnectionESt14default_deleteIS1_EED2Ev
	movq	%fs:40, %rax
	movq	-8(%rbp), %rcx
	cmpq	%rcx, %rax
	jne	.LBB60_38
# %bb.30:
	addq	$192, %rsp
	popq	%rbp
	.cfi_def_cfa %rsp, 8
	retq
.LBB60_31:
	.cfi_def_cfa %rbp, 16
.Ltmp250:
	movq	%rax, %rcx
	movl	%edx, %eax
	movq	%rcx, -80(%rbp)
	movl	%eax, -84(%rbp)
.Ltmp251:
	callq	__cxa_end_catch@PLT
.Ltmp252:
	jmp	.LBB60_33
.LBB60_32:
.Ltmp258:
	movq	%rax, %rcx
	movl	%edx, %eax
	movq	%rcx, -80(%rbp)
	movl	%eax, -84(%rbp)
	jmp	.LBB60_34
.LBB60_33:
	jmp	.LBB60_34
.LBB60_34:
	leaq	-16(%rbp), %rdi
	callq	_ZNSt10unique_ptrIN3sql10ConnectionESt14default_deleteIS1_EED2Ev
# %bb.35:
	movq	-80(%rbp), %rax
	movq	%rax, -192(%rbp)                # 8-byte Spill
	movq	%fs:40, %rax
	movq	-8(%rbp), %rcx
	cmpq	%rcx, %rax
	jne	.LBB60_38
# %bb.36:
	movq	-192(%rbp), %rdi                # 8-byte Reload
	callq	_Unwind_Resume@PLT
.LBB60_37:
.Ltmp253:
	movq	%rax, %rdi
                                        # kill: def $eax killed $edx killed $rdx
	callq	__clang_call_terminate
.LBB60_38:
	callq	__stack_chk_fail@PLT
.Lfunc_end60:
	.size	_Z15list_by_materiaNSt7__cxx1112basic_stringIcSt11char_traitsIcESaIcEEE, .Lfunc_end60-_Z15list_by_materiaNSt7__cxx1112basic_stringIcSt11char_traitsIcESaIcEEE
	.cfi_endproc
	.section	.gcc_except_table,"a",@progbits
	.p2align	2, 0x0
GCC_except_table60:
.Lexception11:
	.byte	255                             # @LPStart Encoding = omit
	.byte	155                             # @TType Encoding = indirect pcrel sdata4
	.uleb128 .Lttbase6-.Lttbaseref6
.Lttbaseref6:
	.byte	1                               # Call site Encoding = uleb128
	.uleb128 .Lcst_end11-.Lcst_begin11
.Lcst_begin11:
	.uleb128 .Lfunc_begin11-.Lfunc_begin11  # >> Call Site 1 <<
	.uleb128 .Ltmp218-.Lfunc_begin11        #   Call between .Lfunc_begin11 and .Ltmp218
	.byte	0                               #     has no landing pad
	.byte	0                               #   On action: cleanup
	.uleb128 .Ltmp218-.Lfunc_begin11        # >> Call Site 2 <<
	.uleb128 .Ltmp219-.Ltmp218              #   Call between .Ltmp218 and .Ltmp219
	.uleb128 .Ltmp220-.Lfunc_begin11        #     jumps to .Ltmp220
	.byte	3                               #   On action: 2
	.uleb128 .Ltmp221-.Lfunc_begin11        # >> Call Site 3 <<
	.uleb128 .Ltmp224-.Ltmp221              #   Call between .Ltmp221 and .Ltmp224
	.uleb128 .Ltmp225-.Lfunc_begin11        #     jumps to .Ltmp225
	.byte	3                               #   On action: 2
	.uleb128 .Ltmp226-.Lfunc_begin11        # >> Call Site 4 <<
	.uleb128 .Ltmp227-.Ltmp226              #   Call between .Ltmp226 and .Ltmp227
	.uleb128 .Ltmp233-.Lfunc_begin11        #     jumps to .Ltmp233
	.byte	3                               #   On action: 2
	.uleb128 .Ltmp228-.Lfunc_begin11        # >> Call Site 5 <<
	.uleb128 .Ltmp229-.Ltmp228              #   Call between .Ltmp228 and .Ltmp229
	.uleb128 .Ltmp230-.Lfunc_begin11        #     jumps to .Ltmp230
	.byte	3                               #   On action: 2
	.uleb128 .Ltmp231-.Lfunc_begin11        # >> Call Site 6 <<
	.uleb128 .Ltmp232-.Ltmp231              #   Call between .Ltmp231 and .Ltmp232
	.uleb128 .Ltmp233-.Lfunc_begin11        #     jumps to .Ltmp233
	.byte	3                               #   On action: 2
	.uleb128 .Ltmp234-.Lfunc_begin11        # >> Call Site 7 <<
	.uleb128 .Ltmp237-.Ltmp234              #   Call between .Ltmp234 and .Ltmp237
	.uleb128 .Ltmp243-.Lfunc_begin11        #     jumps to .Ltmp243
	.byte	3                               #   On action: 2
	.uleb128 .Ltmp238-.Lfunc_begin11        # >> Call Site 8 <<
	.uleb128 .Ltmp239-.Ltmp238              #   Call between .Ltmp238 and .Ltmp239
	.uleb128 .Ltmp240-.Lfunc_begin11        #     jumps to .Ltmp240
	.byte	3                               #   On action: 2
	.uleb128 .Ltmp241-.Lfunc_begin11        # >> Call Site 9 <<
	.uleb128 .Ltmp242-.Ltmp241              #   Call between .Ltmp241 and .Ltmp242
	.uleb128 .Ltmp243-.Lfunc_begin11        #     jumps to .Ltmp243
	.byte	3                               #   On action: 2
	.uleb128 .Ltmp242-.Lfunc_begin11        # >> Call Site 10 <<
	.uleb128 .Ltmp244-.Ltmp242              #   Call between .Ltmp242 and .Ltmp244
	.byte	0                               #     has no landing pad
	.byte	0                               #   On action: cleanup
	.uleb128 .Ltmp244-.Lfunc_begin11        # >> Call Site 11 <<
	.uleb128 .Ltmp245-.Ltmp244              #   Call between .Ltmp244 and .Ltmp245
	.uleb128 .Ltmp250-.Lfunc_begin11        #     jumps to .Ltmp250
	.byte	0                               #   On action: cleanup
	.uleb128 .Ltmp245-.Lfunc_begin11        # >> Call Site 12 <<
	.uleb128 .Ltmp246-.Ltmp245              #   Call between .Ltmp245 and .Ltmp246
	.byte	0                               #     has no landing pad
	.byte	0                               #   On action: cleanup
	.uleb128 .Ltmp246-.Lfunc_begin11        # >> Call Site 13 <<
	.uleb128 .Ltmp249-.Ltmp246              #   Call between .Ltmp246 and .Ltmp249
	.uleb128 .Ltmp250-.Lfunc_begin11        #     jumps to .Ltmp250
	.byte	0                               #   On action: cleanup
	.uleb128 .Ltmp254-.Lfunc_begin11        # >> Call Site 14 <<
	.uleb128 .Ltmp257-.Ltmp254              #   Call between .Ltmp254 and .Ltmp257
	.uleb128 .Ltmp258-.Lfunc_begin11        #     jumps to .Ltmp258
	.byte	0                               #   On action: cleanup
	.uleb128 .Ltmp251-.Lfunc_begin11        # >> Call Site 15 <<
	.uleb128 .Ltmp252-.Ltmp251              #   Call between .Ltmp251 and .Ltmp252
	.uleb128 .Ltmp253-.Lfunc_begin11        #     jumps to .Ltmp253
	.byte	5                               #   On action: 3
	.uleb128 .Ltmp252-.Lfunc_begin11        # >> Call Site 16 <<
	.uleb128 .Lfunc_end60-.Ltmp252          #   Call between .Ltmp252 and .Lfunc_end60
	.byte	0                               #     has no landing pad
	.byte	0                               #   On action: cleanup
.Lcst_end11:
	.byte	0                               # >> Action Record 1 <<
                                        #   Cleanup
	.byte	0                               #   No further actions
	.byte	1                               # >> Action Record 2 <<
                                        #   Catch TypeInfo 1
	.byte	125                             #   Continue to action 1
	.byte	2                               # >> Action Record 3 <<
                                        #   Catch TypeInfo 2
	.byte	0                               #   No further actions
	.p2align	2, 0x0
                                        # >> Catch TypeInfos <<
	.long	0                               # TypeInfo 2
.Ltmp259:                               # TypeInfo 1
	.long	.L_ZTIN3sql12SQLExceptionE.DW.stub-.Ltmp259
.Lttbase6:
	.p2align	2, 0x0
                                        # -- End function
	.section	.text._ZN3sql9SQLStringC2ERKNSt7__cxx1112basic_stringIcSt11char_traitsIcESaIcEEE,"axG",@progbits,_ZN3sql9SQLStringC2ERKNSt7__cxx1112basic_stringIcSt11char_traitsIcESaIcEEE,comdat
	.weak	_ZN3sql9SQLStringC2ERKNSt7__cxx1112basic_stringIcSt11char_traitsIcESaIcEEE # -- Begin function _ZN3sql9SQLStringC2ERKNSt7__cxx1112basic_stringIcSt11char_traitsIcESaIcEEE
	.p2align	4, 0x90
	.type	_ZN3sql9SQLStringC2ERKNSt7__cxx1112basic_stringIcSt11char_traitsIcESaIcEEE,@function
_ZN3sql9SQLStringC2ERKNSt7__cxx1112basic_stringIcSt11char_traitsIcESaIcEEE: # @_ZN3sql9SQLStringC2ERKNSt7__cxx1112basic_stringIcSt11char_traitsIcESaIcEEE
	.cfi_startproc
# %bb.0:
	pushq	%rbp
	.cfi_def_cfa_offset 16
	.cfi_offset %rbp, -16
	movq	%rsp, %rbp
	.cfi_def_cfa_register %rbp
	subq	$32, %rsp
	movq	%rdi, -8(%rbp)
	movq	%rsi, -16(%rbp)
	movq	-8(%rbp), %rax
	movq	%rax, -32(%rbp)                 # 8-byte Spill
	movq	-16(%rbp), %rdi
	callq	_ZNKSt7__cxx1112basic_stringIcSt11char_traitsIcESaIcEE5c_strEv@PLT
	movq	%rax, -24(%rbp)                 # 8-byte Spill
	movq	-16(%rbp), %rdi
	callq	_ZNKSt7__cxx1112basic_stringIcSt11char_traitsIcESaIcEE6lengthEv@PLT
	movq	-32(%rbp), %rdi                 # 8-byte Reload
	movq	-24(%rbp), %rsi                 # 8-byte Reload
	movq	%rax, %rdx
	callq	_ZN3sql9SQLStringC2EPKcm@PLT
	addq	$32, %rsp
	popq	%rbp
	.cfi_def_cfa %rsp, 8
	retq
.Lfunc_end61:
	.size	_ZN3sql9SQLStringC2ERKNSt7__cxx1112basic_stringIcSt11char_traitsIcESaIcEEE, .Lfunc_end61-_ZN3sql9SQLStringC2ERKNSt7__cxx1112basic_stringIcSt11char_traitsIcESaIcEEE
	.cfi_endproc
                                        # -- End function
	.text
	.globl	_Z10list_by_idi                 # -- Begin function _Z10list_by_idi
	.p2align	4, 0x90
	.type	_Z10list_by_idi,@function
_Z10list_by_idi:                        # @_Z10list_by_idi
.Lfunc_begin12:
	.cfi_startproc
	.cfi_personality 155, DW.ref.__gxx_personality_v0
	.cfi_lsda 27, .Lexception12
# %bb.0:
	pushq	%rbp
	.cfi_def_cfa_offset 16
	.cfi_offset %rbp, -16
	movq	%rsp, %rbp
	.cfi_def_cfa_register %rbp
	subq	$576, %rsp                      # imm = 0x240
	movq	%fs:40, %rax
	movq	%rax, -8(%rbp)
	movl	%edi, -236(%rbp)
	leaq	-16(%rbp), %rdi
	movq	%rdi, -280(%rbp)                # 8-byte Spill
	callq	_Z13get_conectionv
	movq	-280(%rbp), %rdi                # 8-byte Reload
	callq	_ZNKSt10unique_ptrIN3sql10ConnectionESt14default_deleteIS1_EEptEv
	movq	%rax, -272(%rbp)                # 8-byte Spill
.Ltmp260:
	leaq	.L.str.48(%rip), %rsi
	leaq	-40(%rbp), %rdi
	callq	_ZN3sql9SQLStringC1EPKc@PLT
.Ltmp261:
	jmp	.LBB62_1
.LBB62_1:
	movq	-272(%rbp), %rdi                # 8-byte Reload
	movq	(%rdi), %rax
	movq	40(%rax), %rax
.Ltmp263:
	leaq	-40(%rbp), %rsi
	callq	*%rax
.Ltmp264:
	movq	%rax, -288(%rbp)                # 8-byte Spill
	jmp	.LBB62_2
.LBB62_2:
.Ltmp265:
	movq	-288(%rbp), %rsi                # 8-byte Reload
	leaq	-32(%rbp), %rdi
	callq	_ZNSt10shared_ptrIN3sql17PreparedStatementEEC2IS1_vEEPT_
.Ltmp266:
	jmp	.LBB62_3
.LBB62_3:
	leaq	-40(%rbp), %rdi
	callq	_ZN3sql9SQLStringD1Ev@PLT
	leaq	-32(%rbp), %rdi
	callq	_ZNKSt19__shared_ptr_accessIN3sql17PreparedStatementELN9__gnu_cxx12_Lock_policyE2ELb0ELb0EEptEv
	movq	%rax, %rdi
	movl	-236(%rbp), %edx
	movq	(%rdi), %rax
	movq	536(%rax), %rax
.Ltmp268:
	movl	$1, %esi
	callq	*%rax
.Ltmp269:
	jmp	.LBB62_4
.LBB62_4:
	leaq	-32(%rbp), %rdi
	callq	_ZNKSt19__shared_ptr_accessIN3sql17PreparedStatementELN9__gnu_cxx12_Lock_policyE2ELb0ELb0EEptEv
	movq	%rax, %rdi
	movq	(%rdi), %rax
	movq	456(%rax), %rax
.Ltmp270:
	callq	*%rax
.Ltmp271:
	movq	%rax, -296(%rbp)                # 8-byte Spill
	jmp	.LBB62_5
.LBB62_5:
	movq	-296(%rbp), %rsi                # 8-byte Reload
	leaq	-48(%rbp), %rdi
	callq	_ZNSt10unique_ptrIN3sql9ResultSetESt14default_deleteIS1_EEC2IS3_vEEPS1_
.LBB62_6:                               # =>This Loop Header: Depth=1
                                        #     Child Loop BB62_30 Depth 2
                                        #     Child Loop BB62_77 Depth 2
	leaq	-48(%rbp), %rdi
	callq	_ZNKSt10unique_ptrIN3sql9ResultSetESt14default_deleteIS1_EEptEv
	movq	%rax, %rdi
	movq	(%rdi), %rax
	movq	24(%rax), %rax
.Ltmp273:
	callq	*%rax
.Ltmp274:
	movb	%al, -297(%rbp)                 # 1-byte Spill
	jmp	.LBB62_7
.LBB62_7:                               #   in Loop: Header=BB62_6 Depth=1
	movb	-297(%rbp), %al                 # 1-byte Reload
	testb	$1, %al
	jne	.LBB62_8
	jmp	.LBB62_99
.LBB62_8:                               #   in Loop: Header=BB62_6 Depth=1
.Ltmp275:
	leaq	.L.str.20(%rip), %rdi
	xorl	%eax, %eax
                                        # kill: def $al killed $al killed $eax
	callq	printf@PLT
.Ltmp276:
	jmp	.LBB62_9
.LBB62_9:                               #   in Loop: Header=BB62_6 Depth=1
	movl	-236(%rbp), %esi
.Ltmp277:
	leaq	.L.str.21(%rip), %rdi
	xorl	%eax, %eax
                                        # kill: def $al killed $al killed $eax
	callq	printf@PLT
.Ltmp278:
	jmp	.LBB62_10
.LBB62_10:                              #   in Loop: Header=BB62_6 Depth=1
	leaq	-48(%rbp), %rdi
	callq	_ZNKSt10unique_ptrIN3sql9ResultSetESt14default_deleteIS1_EEptEv
	movq	%rax, -312(%rbp)                # 8-byte Spill
.Ltmp279:
	leaq	.L.str.23(%rip), %rsi
	leaq	-64(%rbp), %rdi
	callq	_ZN3sql9SQLStringC1EPKc@PLT
.Ltmp280:
	jmp	.LBB62_11
.LBB62_11:                              #   in Loop: Header=BB62_6 Depth=1
	movq	-312(%rbp), %rsi                # 8-byte Reload
	movq	(%rsi), %rax
	movq	240(%rax), %rax
.Ltmp281:
	leaq	-56(%rbp), %rdi
	leaq	-64(%rbp), %rdx
	callq	*%rax
.Ltmp282:
	jmp	.LBB62_12
.LBB62_12:                              #   in Loop: Header=BB62_6 Depth=1
.Ltmp284:
	leaq	-56(%rbp), %rdi
	callq	_ZNK3sql9SQLString5c_strEv@PLT
.Ltmp285:
	movq	%rax, -320(%rbp)                # 8-byte Spill
	jmp	.LBB62_13
.LBB62_13:                              #   in Loop: Header=BB62_6 Depth=1
.Ltmp286:
	movq	-320(%rbp), %rsi                # 8-byte Reload
	leaq	.L.str.22(%rip), %rdi
	xorl	%eax, %eax
                                        # kill: def $al killed $al killed $eax
	callq	printf@PLT
.Ltmp287:
	jmp	.LBB62_14
.LBB62_14:                              #   in Loop: Header=BB62_6 Depth=1
	leaq	-56(%rbp), %rdi
	callq	_ZN3sql9SQLStringD1Ev@PLT
	leaq	-64(%rbp), %rdi
	callq	_ZN3sql9SQLStringD1Ev@PLT
	leaq	-48(%rbp), %rdi
	callq	_ZNKSt10unique_ptrIN3sql9ResultSetESt14default_deleteIS1_EEptEv
	movq	%rax, -328(%rbp)                # 8-byte Spill
.Ltmp289:
	leaq	.L.str.25(%rip), %rsi
	leaq	-72(%rbp), %rdi
	callq	_ZN3sql9SQLStringC1EPKc@PLT
.Ltmp290:
	jmp	.LBB62_15
.LBB62_15:                              #   in Loop: Header=BB62_6 Depth=1
	movq	-328(%rbp), %rdi                # 8-byte Reload
	movq	(%rdi), %rax
	movq	256(%rax), %rax
.Ltmp291:
	leaq	-72(%rbp), %rsi
	callq	*%rax
.Ltmp292:
	movl	%eax, -332(%rbp)                # 4-byte Spill
	jmp	.LBB62_16
.LBB62_16:                              #   in Loop: Header=BB62_6 Depth=1
.Ltmp293:
	movl	-332(%rbp), %esi                # 4-byte Reload
	leaq	.L.str.24(%rip), %rdi
	xorl	%eax, %eax
                                        # kill: def $al killed $al killed $eax
	callq	printf@PLT
.Ltmp294:
	jmp	.LBB62_17
.LBB62_17:                              #   in Loop: Header=BB62_6 Depth=1
	leaq	-72(%rbp), %rdi
	callq	_ZN3sql9SQLStringD1Ev@PLT
	leaq	-48(%rbp), %rdi
	callq	_ZNKSt10unique_ptrIN3sql9ResultSetESt14default_deleteIS1_EEptEv
	movq	%rax, -344(%rbp)                # 8-byte Spill
.Ltmp296:
	leaq	.L.str.27(%rip), %rsi
	leaq	-80(%rbp), %rdi
	callq	_ZN3sql9SQLStringC1EPKc@PLT
.Ltmp297:
	jmp	.LBB62_18
.LBB62_18:                              #   in Loop: Header=BB62_6 Depth=1
	movq	-344(%rbp), %rdi                # 8-byte Reload
	movq	(%rdi), %rax
	movq	344(%rax), %rax
.Ltmp298:
	leaq	-80(%rbp), %rsi
	callq	*%rax
.Ltmp299:
	fstpt	-356(%rbp)                      # 10-byte Folded Spill
	jmp	.LBB62_19
.LBB62_19:                              #   in Loop: Header=BB62_6 Depth=1
.Ltmp300:
	fldt	-356(%rbp)                      # 10-byte Folded Reload
	movq	%rsp, %rax
	fstpt	(%rax)
	leaq	.L.str.26(%rip), %rdi
	xorl	%eax, %eax
                                        # kill: def $al killed $al killed $eax
	callq	printf@PLT
.Ltmp301:
	jmp	.LBB62_20
.LBB62_20:                              #   in Loop: Header=BB62_6 Depth=1
	leaq	-80(%rbp), %rdi
	callq	_ZN3sql9SQLStringD1Ev@PLT
	leaq	-48(%rbp), %rdi
	callq	_ZNKSt10unique_ptrIN3sql9ResultSetESt14default_deleteIS1_EEptEv
	movq	%rax, -368(%rbp)                # 8-byte Spill
.Ltmp303:
	leaq	.L.str.29(%rip), %rsi
	leaq	-96(%rbp), %rdi
	callq	_ZN3sql9SQLStringC1EPKc@PLT
.Ltmp304:
	jmp	.LBB62_21
.LBB62_21:                              #   in Loop: Header=BB62_6 Depth=1
	movq	-368(%rbp), %rsi                # 8-byte Reload
	movq	(%rsi), %rax
	movq	240(%rax), %rax
.Ltmp305:
	leaq	-88(%rbp), %rdi
	leaq	-96(%rbp), %rdx
	callq	*%rax
.Ltmp306:
	jmp	.LBB62_22
.LBB62_22:                              #   in Loop: Header=BB62_6 Depth=1
.Ltmp308:
	leaq	-88(%rbp), %rdi
	callq	_ZNK3sql9SQLString5c_strEv@PLT
.Ltmp309:
	movq	%rax, -376(%rbp)                # 8-byte Spill
	jmp	.LBB62_23
.LBB62_23:                              #   in Loop: Header=BB62_6 Depth=1
.Ltmp310:
	movq	-376(%rbp), %rsi                # 8-byte Reload
	leaq	.L.str.28(%rip), %rdi
	xorl	%eax, %eax
                                        # kill: def $al killed $al killed $eax
	callq	printf@PLT
.Ltmp311:
	jmp	.LBB62_24
.LBB62_24:                              #   in Loop: Header=BB62_6 Depth=1
	leaq	-88(%rbp), %rdi
	callq	_ZN3sql9SQLStringD1Ev@PLT
	leaq	-96(%rbp), %rdi
	callq	_ZN3sql9SQLStringD1Ev@PLT
	leaq	-16(%rbp), %rdi
	callq	_ZNKSt10unique_ptrIN3sql10ConnectionESt14default_deleteIS1_EEptEv
	movq	%rax, -384(%rbp)                # 8-byte Spill
.Ltmp313:
	leaq	.L.str.30(%rip), %rsi
	leaq	-120(%rbp), %rdi
	callq	_ZN3sql9SQLStringC1EPKc@PLT
.Ltmp314:
	jmp	.LBB62_25
.LBB62_25:                              #   in Loop: Header=BB62_6 Depth=1
	movq	-384(%rbp), %rdi                # 8-byte Reload
	movq	(%rdi), %rax
	movq	40(%rax), %rax
.Ltmp316:
	leaq	-120(%rbp), %rsi
	callq	*%rax
.Ltmp317:
	movq	%rax, -392(%rbp)                # 8-byte Spill
	jmp	.LBB62_26
.LBB62_26:                              #   in Loop: Header=BB62_6 Depth=1
.Ltmp318:
	movq	-392(%rbp), %rsi                # 8-byte Reload
	leaq	-112(%rbp), %rdi
	callq	_ZNSt10shared_ptrIN3sql17PreparedStatementEEC2IS1_vEEPT_
.Ltmp319:
	jmp	.LBB62_27
.LBB62_27:                              #   in Loop: Header=BB62_6 Depth=1
	leaq	-120(%rbp), %rdi
	callq	_ZN3sql9SQLStringD1Ev@PLT
	leaq	-112(%rbp), %rdi
	callq	_ZNKSt19__shared_ptr_accessIN3sql17PreparedStatementELN9__gnu_cxx12_Lock_policyE2ELb0ELb0EEptEv
	movq	%rax, %rdi
	movl	-236(%rbp), %edx
	movq	(%rdi), %rax
	movq	536(%rax), %rax
.Ltmp321:
	movl	$1, %esi
	callq	*%rax
.Ltmp322:
	jmp	.LBB62_28
.LBB62_28:                              #   in Loop: Header=BB62_6 Depth=1
	leaq	-112(%rbp), %rdi
	callq	_ZNKSt19__shared_ptr_accessIN3sql17PreparedStatementELN9__gnu_cxx12_Lock_policyE2ELb0ELb0EEptEv
	movq	%rax, %rdi
	movq	(%rdi), %rax
	movq	456(%rax), %rax
.Ltmp323:
	callq	*%rax
.Ltmp324:
	movq	%rax, -400(%rbp)                # 8-byte Spill
	jmp	.LBB62_29
.LBB62_29:                              #   in Loop: Header=BB62_6 Depth=1
	movq	-400(%rbp), %rsi                # 8-byte Reload
	leaq	-128(%rbp), %rdi
	callq	_ZNSt10unique_ptrIN3sql9ResultSetESt14default_deleteIS1_EEC2IS3_vEEPS1_
.LBB62_30:                              #   Parent Loop BB62_6 Depth=1
                                        # =>  This Inner Loop Header: Depth=2
	leaq	-128(%rbp), %rdi
	callq	_ZNKSt10unique_ptrIN3sql9ResultSetESt14default_deleteIS1_EEptEv
	movq	%rax, %rdi
	movq	(%rdi), %rax
	movq	24(%rax), %rax
.Ltmp326:
	callq	*%rax
.Ltmp327:
	movb	%al, -401(%rbp)                 # 1-byte Spill
	jmp	.LBB62_31
.LBB62_31:                              #   in Loop: Header=BB62_30 Depth=2
	movb	-401(%rbp), %al                 # 1-byte Reload
	testb	$1, %al
	jne	.LBB62_32
	jmp	.LBB62_70
.LBB62_32:                              #   in Loop: Header=BB62_30 Depth=2
.Ltmp360:
	leaq	.L.str.31(%rip), %rdi
	xorl	%eax, %eax
                                        # kill: def $al killed $al killed $eax
	callq	printf@PLT
.Ltmp361:
	jmp	.LBB62_33
.LBB62_33:                              #   in Loop: Header=BB62_30 Depth=2
	leaq	-128(%rbp), %rdi
	callq	_ZNKSt10unique_ptrIN3sql9ResultSetESt14default_deleteIS1_EEptEv
	movq	%rax, -416(%rbp)                # 8-byte Spill
.Ltmp362:
	leaq	.L.str.23(%rip), %rsi
	leaq	-144(%rbp), %rdi
	callq	_ZN3sql9SQLStringC1EPKc@PLT
.Ltmp363:
	jmp	.LBB62_34
.LBB62_34:                              #   in Loop: Header=BB62_30 Depth=2
	movq	-416(%rbp), %rsi                # 8-byte Reload
	movq	(%rsi), %rax
	movq	240(%rax), %rax
.Ltmp364:
	leaq	-136(%rbp), %rdi
	leaq	-144(%rbp), %rdx
	callq	*%rax
.Ltmp365:
	jmp	.LBB62_35
.LBB62_35:                              #   in Loop: Header=BB62_30 Depth=2
.Ltmp367:
	leaq	-136(%rbp), %rdi
	callq	_ZNK3sql9SQLString5c_strEv@PLT
.Ltmp368:
	movq	%rax, -424(%rbp)                # 8-byte Spill
	jmp	.LBB62_36
.LBB62_36:                              #   in Loop: Header=BB62_30 Depth=2
.Ltmp369:
	movq	-424(%rbp), %rsi                # 8-byte Reload
	leaq	.L.str.32(%rip), %rdi
	xorl	%eax, %eax
                                        # kill: def $al killed $al killed $eax
	callq	printf@PLT
.Ltmp370:
	jmp	.LBB62_37
.LBB62_37:                              #   in Loop: Header=BB62_30 Depth=2
	leaq	-136(%rbp), %rdi
	callq	_ZN3sql9SQLStringD1Ev@PLT
	leaq	-144(%rbp), %rdi
	callq	_ZN3sql9SQLStringD1Ev@PLT
	leaq	-128(%rbp), %rdi
	callq	_ZNKSt10unique_ptrIN3sql9ResultSetESt14default_deleteIS1_EEptEv
	movq	%rax, -432(%rbp)                # 8-byte Spill
.Ltmp372:
	leaq	.L.str.34(%rip), %rsi
	leaq	-160(%rbp), %rdi
	callq	_ZN3sql9SQLStringC1EPKc@PLT
.Ltmp373:
	jmp	.LBB62_38
.LBB62_38:                              #   in Loop: Header=BB62_30 Depth=2
	movq	-432(%rbp), %rsi                # 8-byte Reload
	movq	(%rsi), %rax
	movq	240(%rax), %rax
.Ltmp374:
	leaq	-152(%rbp), %rdi
	leaq	-160(%rbp), %rdx
	callq	*%rax
.Ltmp375:
	jmp	.LBB62_39
.LBB62_39:                              #   in Loop: Header=BB62_30 Depth=2
.Ltmp377:
	leaq	-152(%rbp), %rdi
	callq	_ZNK3sql9SQLString5c_strEv@PLT
.Ltmp378:
	movq	%rax, -440(%rbp)                # 8-byte Spill
	jmp	.LBB62_40
.LBB62_40:                              #   in Loop: Header=BB62_30 Depth=2
.Ltmp379:
	movq	-440(%rbp), %rsi                # 8-byte Reload
	leaq	.L.str.33(%rip), %rdi
	xorl	%eax, %eax
                                        # kill: def $al killed $al killed $eax
	callq	printf@PLT
.Ltmp380:
	jmp	.LBB62_41
.LBB62_41:                              #   in Loop: Header=BB62_30 Depth=2
	leaq	-152(%rbp), %rdi
	callq	_ZN3sql9SQLStringD1Ev@PLT
	leaq	-160(%rbp), %rdi
	callq	_ZN3sql9SQLStringD1Ev@PLT
	leaq	-128(%rbp), %rdi
	callq	_ZNKSt10unique_ptrIN3sql9ResultSetESt14default_deleteIS1_EEptEv
	movq	%rax, -448(%rbp)                # 8-byte Spill
.Ltmp382:
	leaq	.L.str.36(%rip), %rsi
	leaq	-176(%rbp), %rdi
	callq	_ZN3sql9SQLStringC1EPKc@PLT
.Ltmp383:
	jmp	.LBB62_42
.LBB62_42:                              #   in Loop: Header=BB62_30 Depth=2
	movq	-448(%rbp), %rsi                # 8-byte Reload
	movq	(%rsi), %rax
	movq	240(%rax), %rax
.Ltmp385:
	leaq	-168(%rbp), %rdi
	leaq	-176(%rbp), %rdx
	callq	*%rax
.Ltmp386:
	jmp	.LBB62_43
.LBB62_43:                              #   in Loop: Header=BB62_30 Depth=2
.Ltmp388:
	leaq	-168(%rbp), %rdi
	callq	_ZNK3sql9SQLString5c_strEv@PLT
.Ltmp389:
	movq	%rax, -456(%rbp)                # 8-byte Spill
	jmp	.LBB62_44
.LBB62_44:                              #   in Loop: Header=BB62_30 Depth=2
.Ltmp390:
	movq	-456(%rbp), %rsi                # 8-byte Reload
	leaq	.L.str.35(%rip), %rdi
	xorl	%eax, %eax
                                        # kill: def $al killed $al killed $eax
	callq	printf@PLT
.Ltmp391:
	jmp	.LBB62_45
.LBB62_45:                              #   in Loop: Header=BB62_30 Depth=2
	leaq	-168(%rbp), %rdi
	callq	_ZN3sql9SQLStringD1Ev@PLT
	leaq	-176(%rbp), %rdi
	callq	_ZN3sql9SQLStringD1Ev@PLT
	jmp	.LBB62_30
.LBB62_46:
.Ltmp262:
	movq	%rax, %rcx
	movl	%edx, %eax
	movq	%rcx, -248(%rbp)
	movl	%eax, -252(%rbp)
	jmp	.LBB62_102
.LBB62_47:
.Ltmp267:
	movq	%rax, %rcx
	movl	%edx, %eax
	movq	%rcx, -248(%rbp)
	movl	%eax, -252(%rbp)
	leaq	-40(%rbp), %rdi
	callq	_ZN3sql9SQLStringD1Ev@PLT
	jmp	.LBB62_102
.LBB62_48:
.Ltmp272:
	movq	%rax, %rcx
	movl	%edx, %eax
	movq	%rcx, -248(%rbp)
	movl	%eax, -252(%rbp)
	jmp	.LBB62_101
.LBB62_49:
.Ltmp315:
	movq	%rax, %rcx
	movl	%edx, %eax
	movq	%rcx, -248(%rbp)
	movl	%eax, -252(%rbp)
	jmp	.LBB62_100
.LBB62_50:
.Ltmp283:
	movq	%rax, %rcx
	movl	%edx, %eax
	movq	%rcx, -248(%rbp)
	movl	%eax, -252(%rbp)
	jmp	.LBB62_52
.LBB62_51:
.Ltmp288:
	movq	%rax, %rcx
	movl	%edx, %eax
	movq	%rcx, -248(%rbp)
	movl	%eax, -252(%rbp)
	leaq	-56(%rbp), %rdi
	callq	_ZN3sql9SQLStringD1Ev@PLT
.LBB62_52:
	leaq	-64(%rbp), %rdi
	callq	_ZN3sql9SQLStringD1Ev@PLT
	jmp	.LBB62_100
.LBB62_53:
.Ltmp295:
	movq	%rax, %rcx
	movl	%edx, %eax
	movq	%rcx, -248(%rbp)
	movl	%eax, -252(%rbp)
	leaq	-72(%rbp), %rdi
	callq	_ZN3sql9SQLStringD1Ev@PLT
	jmp	.LBB62_100
.LBB62_54:
.Ltmp302:
	movq	%rax, %rcx
	movl	%edx, %eax
	movq	%rcx, -248(%rbp)
	movl	%eax, -252(%rbp)
	leaq	-80(%rbp), %rdi
	callq	_ZN3sql9SQLStringD1Ev@PLT
	jmp	.LBB62_100
.LBB62_55:
.Ltmp307:
	movq	%rax, %rcx
	movl	%edx, %eax
	movq	%rcx, -248(%rbp)
	movl	%eax, -252(%rbp)
	jmp	.LBB62_57
.LBB62_56:
.Ltmp312:
	movq	%rax, %rcx
	movl	%edx, %eax
	movq	%rcx, -248(%rbp)
	movl	%eax, -252(%rbp)
	leaq	-88(%rbp), %rdi
	callq	_ZN3sql9SQLStringD1Ev@PLT
.LBB62_57:
	leaq	-96(%rbp), %rdi
	callq	_ZN3sql9SQLStringD1Ev@PLT
	jmp	.LBB62_100
.LBB62_58:
.Ltmp320:
	movq	%rax, %rcx
	movl	%edx, %eax
	movq	%rcx, -248(%rbp)
	movl	%eax, -252(%rbp)
	leaq	-120(%rbp), %rdi
	callq	_ZN3sql9SQLStringD1Ev@PLT
	jmp	.LBB62_100
.LBB62_59:
.Ltmp325:
	movq	%rax, %rcx
	movl	%edx, %eax
	movq	%rcx, -248(%rbp)
	movl	%eax, -252(%rbp)
	jmp	.LBB62_98
.LBB62_60:
.Ltmp384:
	movq	%rax, %rcx
	movl	%edx, %eax
	movq	%rcx, -248(%rbp)
	movl	%eax, -252(%rbp)
	jmp	.LBB62_97
.LBB62_61:
.Ltmp366:
	movq	%rax, %rcx
	movl	%edx, %eax
	movq	%rcx, -248(%rbp)
	movl	%eax, -252(%rbp)
	jmp	.LBB62_63
.LBB62_62:
.Ltmp371:
	movq	%rax, %rcx
	movl	%edx, %eax
	movq	%rcx, -248(%rbp)
	movl	%eax, -252(%rbp)
	leaq	-136(%rbp), %rdi
	callq	_ZN3sql9SQLStringD1Ev@PLT
.LBB62_63:
	leaq	-144(%rbp), %rdi
	callq	_ZN3sql9SQLStringD1Ev@PLT
	jmp	.LBB62_97
.LBB62_64:
.Ltmp376:
	movq	%rax, %rcx
	movl	%edx, %eax
	movq	%rcx, -248(%rbp)
	movl	%eax, -252(%rbp)
	jmp	.LBB62_66
.LBB62_65:
.Ltmp381:
	movq	%rax, %rcx
	movl	%edx, %eax
	movq	%rcx, -248(%rbp)
	movl	%eax, -252(%rbp)
	leaq	-152(%rbp), %rdi
	callq	_ZN3sql9SQLStringD1Ev@PLT
.LBB62_66:
	leaq	-160(%rbp), %rdi
	callq	_ZN3sql9SQLStringD1Ev@PLT
	jmp	.LBB62_97
.LBB62_67:
.Ltmp387:
	movq	%rax, %rcx
	movl	%edx, %eax
	movq	%rcx, -248(%rbp)
	movl	%eax, -252(%rbp)
	jmp	.LBB62_69
.LBB62_68:
.Ltmp392:
	movq	%rax, %rcx
	movl	%edx, %eax
	movq	%rcx, -248(%rbp)
	movl	%eax, -252(%rbp)
	leaq	-168(%rbp), %rdi
	callq	_ZN3sql9SQLStringD1Ev@PLT
.LBB62_69:
	leaq	-176(%rbp), %rdi
	callq	_ZN3sql9SQLStringD1Ev@PLT
	jmp	.LBB62_97
.LBB62_70:                              #   in Loop: Header=BB62_6 Depth=1
	leaq	-16(%rbp), %rdi
	callq	_ZNKSt10unique_ptrIN3sql10ConnectionESt14default_deleteIS1_EEptEv
	movq	%rax, -464(%rbp)                # 8-byte Spill
.Ltmp328:
	leaq	.L.str.37(%rip), %rsi
	leaq	-200(%rbp), %rdi
	callq	_ZN3sql9SQLStringC1EPKc@PLT
.Ltmp329:
	jmp	.LBB62_71
.LBB62_71:                              #   in Loop: Header=BB62_6 Depth=1
	movq	-464(%rbp), %rdi                # 8-byte Reload
	movq	(%rdi), %rax
	movq	40(%rax), %rax
.Ltmp330:
	leaq	-200(%rbp), %rsi
	callq	*%rax
.Ltmp331:
	movq	%rax, -472(%rbp)                # 8-byte Spill
	jmp	.LBB62_72
.LBB62_72:                              #   in Loop: Header=BB62_6 Depth=1
.Ltmp332:
	movq	-472(%rbp), %rsi                # 8-byte Reload
	leaq	-192(%rbp), %rdi
	callq	_ZNSt10shared_ptrIN3sql17PreparedStatementEEC2IS1_vEEPT_
.Ltmp333:
	jmp	.LBB62_73
.LBB62_73:                              #   in Loop: Header=BB62_6 Depth=1
	leaq	-200(%rbp), %rdi
	callq	_ZN3sql9SQLStringD1Ev@PLT
	leaq	-192(%rbp), %rdi
	callq	_ZNKSt19__shared_ptr_accessIN3sql17PreparedStatementELN9__gnu_cxx12_Lock_policyE2ELb0ELb0EEptEv
	movq	%rax, %rdi
	movl	-236(%rbp), %edx
	movq	(%rdi), %rax
	movq	536(%rax), %rax
.Ltmp335:
	movl	$1, %esi
	callq	*%rax
.Ltmp336:
	jmp	.LBB62_74
.LBB62_74:                              #   in Loop: Header=BB62_6 Depth=1
	leaq	-192(%rbp), %rdi
	callq	_ZNKSt19__shared_ptr_accessIN3sql17PreparedStatementELN9__gnu_cxx12_Lock_policyE2ELb0ELb0EEptEv
	movq	%rax, %rdi
	movq	(%rdi), %rax
	movq	456(%rax), %rax
.Ltmp337:
	callq	*%rax
.Ltmp338:
	movq	%rax, -480(%rbp)                # 8-byte Spill
	jmp	.LBB62_75
.LBB62_75:                              #   in Loop: Header=BB62_6 Depth=1
	movq	-480(%rbp), %rsi                # 8-byte Reload
	leaq	-208(%rbp), %rdi
	callq	_ZNSt10unique_ptrIN3sql9ResultSetESt14default_deleteIS1_EEC2IS3_vEEPS1_
.Ltmp340:
	leaq	.L.str.38(%rip), %rdi
	xorl	%eax, %eax
                                        # kill: def $al killed $al killed $eax
	callq	printf@PLT
.Ltmp341:
	jmp	.LBB62_76
.LBB62_76:                              #   in Loop: Header=BB62_6 Depth=1
	jmp	.LBB62_77
.LBB62_77:                              #   Parent Loop BB62_6 Depth=1
                                        # =>  This Inner Loop Header: Depth=2
	leaq	-208(%rbp), %rdi
	callq	_ZNKSt10unique_ptrIN3sql9ResultSetESt14default_deleteIS1_EEptEv
	movq	%rax, %rdi
	movq	(%rdi), %rax
	movq	24(%rax), %rax
.Ltmp342:
	callq	*%rax
.Ltmp343:
	movb	%al, -481(%rbp)                 # 1-byte Spill
	jmp	.LBB62_78
.LBB62_78:                              #   in Loop: Header=BB62_77 Depth=2
	movb	-481(%rbp), %al                 # 1-byte Reload
	testb	$1, %al
	jne	.LBB62_79
	jmp	.LBB62_94
.LBB62_79:                              #   in Loop: Header=BB62_77 Depth=2
	leaq	-208(%rbp), %rdi
	callq	_ZNKSt10unique_ptrIN3sql9ResultSetESt14default_deleteIS1_EEptEv
	movq	%rax, -496(%rbp)                # 8-byte Spill
.Ltmp344:
	leaq	.L.str.40(%rip), %rsi
	leaq	-224(%rbp), %rdi
	callq	_ZN3sql9SQLStringC1EPKc@PLT
.Ltmp345:
	jmp	.LBB62_80
.LBB62_80:                              #   in Loop: Header=BB62_77 Depth=2
	movq	-496(%rbp), %rsi                # 8-byte Reload
	movq	(%rsi), %rax
	movq	240(%rax), %rax
.Ltmp347:
	leaq	-216(%rbp), %rdi
	leaq	-224(%rbp), %rdx
	callq	*%rax
.Ltmp348:
	jmp	.LBB62_81
.LBB62_81:                              #   in Loop: Header=BB62_77 Depth=2
.Ltmp350:
	leaq	-216(%rbp), %rdi
	callq	_ZNK3sql9SQLString5c_strEv@PLT
.Ltmp351:
	movq	%rax, -504(%rbp)                # 8-byte Spill
	jmp	.LBB62_82
.LBB62_82:                              #   in Loop: Header=BB62_77 Depth=2
	leaq	-208(%rbp), %rdi
	callq	_ZNKSt10unique_ptrIN3sql9ResultSetESt14default_deleteIS1_EEptEv
	movq	%rax, -512(%rbp)                # 8-byte Spill
.Ltmp352:
	leaq	.L.str.41(%rip), %rsi
	leaq	-232(%rbp), %rdi
	callq	_ZN3sql9SQLStringC1EPKc@PLT
.Ltmp353:
	jmp	.LBB62_83
.LBB62_83:                              #   in Loop: Header=BB62_77 Depth=2
	movq	-512(%rbp), %rdi                # 8-byte Reload
	movq	(%rdi), %rax
	movq	344(%rax), %rax
.Ltmp355:
	leaq	-232(%rbp), %rsi
	callq	*%rax
.Ltmp356:
	fstpt	-524(%rbp)                      # 10-byte Folded Spill
	jmp	.LBB62_84
.LBB62_84:                              #   in Loop: Header=BB62_77 Depth=2
.Ltmp357:
	movq	-504(%rbp), %rsi                # 8-byte Reload
	fldt	-524(%rbp)                      # 10-byte Folded Reload
	movq	%rsp, %rax
	fstpt	(%rax)
	leaq	.L.str.39(%rip), %rdi
	xorl	%eax, %eax
                                        # kill: def $al killed $al killed $eax
	callq	printf@PLT
.Ltmp358:
	jmp	.LBB62_85
.LBB62_85:                              #   in Loop: Header=BB62_77 Depth=2
	leaq	-232(%rbp), %rdi
	callq	_ZN3sql9SQLStringD1Ev@PLT
	leaq	-216(%rbp), %rdi
	callq	_ZN3sql9SQLStringD1Ev@PLT
	leaq	-224(%rbp), %rdi
	callq	_ZN3sql9SQLStringD1Ev@PLT
	jmp	.LBB62_77
.LBB62_86:
.Ltmp334:
	movq	%rax, %rcx
	movl	%edx, %eax
	movq	%rcx, -248(%rbp)
	movl	%eax, -252(%rbp)
	leaq	-200(%rbp), %rdi
	callq	_ZN3sql9SQLStringD1Ev@PLT
	jmp	.LBB62_97
.LBB62_87:
.Ltmp339:
	movq	%rax, %rcx
	movl	%edx, %eax
	movq	%rcx, -248(%rbp)
	movl	%eax, -252(%rbp)
	jmp	.LBB62_96
.LBB62_88:
.Ltmp346:
	movq	%rax, %rcx
	movl	%edx, %eax
	movq	%rcx, -248(%rbp)
	movl	%eax, -252(%rbp)
	jmp	.LBB62_95
.LBB62_89:
.Ltmp349:
	movq	%rax, %rcx
	movl	%edx, %eax
	movq	%rcx, -248(%rbp)
	movl	%eax, -252(%rbp)
	jmp	.LBB62_93
.LBB62_90:
.Ltmp354:
	movq	%rax, %rcx
	movl	%edx, %eax
	movq	%rcx, -248(%rbp)
	movl	%eax, -252(%rbp)
	jmp	.LBB62_92
.LBB62_91:
.Ltmp359:
	movq	%rax, %rcx
	movl	%edx, %eax
	movq	%rcx, -248(%rbp)
	movl	%eax, -252(%rbp)
	leaq	-232(%rbp), %rdi
	callq	_ZN3sql9SQLStringD1Ev@PLT
.LBB62_92:
	leaq	-216(%rbp), %rdi
	callq	_ZN3sql9SQLStringD1Ev@PLT
.LBB62_93:
	leaq	-224(%rbp), %rdi
	callq	_ZN3sql9SQLStringD1Ev@PLT
	jmp	.LBB62_95
.LBB62_94:                              #   in Loop: Header=BB62_6 Depth=1
	leaq	-208(%rbp), %rdi
	callq	_ZNSt10unique_ptrIN3sql9ResultSetESt14default_deleteIS1_EED2Ev
	leaq	-192(%rbp), %rdi
	callq	_ZNSt10shared_ptrIN3sql17PreparedStatementEED2Ev
	leaq	-128(%rbp), %rdi
	callq	_ZNSt10unique_ptrIN3sql9ResultSetESt14default_deleteIS1_EED2Ev
	leaq	-112(%rbp), %rdi
	callq	_ZNSt10shared_ptrIN3sql17PreparedStatementEED2Ev
	jmp	.LBB62_6
.LBB62_95:
	leaq	-208(%rbp), %rdi
	callq	_ZNSt10unique_ptrIN3sql9ResultSetESt14default_deleteIS1_EED2Ev
.LBB62_96:
	leaq	-192(%rbp), %rdi
	callq	_ZNSt10shared_ptrIN3sql17PreparedStatementEED2Ev
.LBB62_97:
	leaq	-128(%rbp), %rdi
	callq	_ZNSt10unique_ptrIN3sql9ResultSetESt14default_deleteIS1_EED2Ev
.LBB62_98:
	leaq	-112(%rbp), %rdi
	callq	_ZNSt10shared_ptrIN3sql17PreparedStatementEED2Ev
	jmp	.LBB62_100
.LBB62_99:
	leaq	-48(%rbp), %rdi
	callq	_ZNSt10unique_ptrIN3sql9ResultSetESt14default_deleteIS1_EED2Ev
	leaq	-32(%rbp), %rdi
	callq	_ZNSt10shared_ptrIN3sql17PreparedStatementEED2Ev
	jmp	.LBB62_108
.LBB62_100:
	leaq	-48(%rbp), %rdi
	callq	_ZNSt10unique_ptrIN3sql9ResultSetESt14default_deleteIS1_EED2Ev
.LBB62_101:
	leaq	-32(%rbp), %rdi
	callq	_ZNSt10shared_ptrIN3sql17PreparedStatementEED2Ev
.LBB62_102:
	movl	-252(%rbp), %eax
	movl	$1, %ecx
	cmpl	%ecx, %eax
	jne	.LBB62_114
# %bb.103:
	movq	-248(%rbp), %rdi
	callq	__cxa_begin_catch@PLT
	movq	%rax, -264(%rbp)
.Ltmp393:
	movq	_ZSt4cerr@GOTPCREL(%rip), %rdi
	leaq	.L.str.46(%rip), %rsi
	callq	_ZStlsISt11char_traitsIcEERSt13basic_ostreamIcT_ES5_PKc@PLT
.Ltmp394:
	movq	%rax, -536(%rbp)                # 8-byte Spill
	jmp	.LBB62_104
.LBB62_104:
	movq	-264(%rbp), %rdi
	movq	(%rdi), %rax
	movq	16(%rax), %rax
	callq	*%rax
	movq	-536(%rbp), %rdi                # 8-byte Reload
	movq	%rax, %rsi
.Ltmp395:
	callq	_ZStlsISt11char_traitsIcEERSt13basic_ostreamIcT_ES5_PKc@PLT
.Ltmp396:
	movq	%rax, -544(%rbp)                # 8-byte Spill
	jmp	.LBB62_105
.LBB62_105:
.Ltmp397:
	movq	-544(%rbp), %rdi                # 8-byte Reload
	movq	_ZSt4endlIcSt11char_traitsIcEERSt13basic_ostreamIT_T0_ES6_@GOTPCREL(%rip), %rsi
	callq	_ZNSolsEPFRSoS_E@PLT
.Ltmp398:
	jmp	.LBB62_106
.LBB62_106:
.Ltmp403:
	callq	__cxa_end_catch@PLT
.Ltmp404:
	jmp	.LBB62_107
.LBB62_107:
	jmp	.LBB62_108
.LBB62_108:
	leaq	-16(%rbp), %rdi
	callq	_ZNKSt10unique_ptrIN3sql10ConnectionESt14default_deleteIS1_EEptEv
	movq	%rax, %rdi
	movq	(%rdi), %rax
	movq	160(%rax), %rax
.Ltmp405:
	callq	*%rax
.Ltmp406:
	jmp	.LBB62_109
.LBB62_109:
	leaq	-16(%rbp), %rdi
	callq	_ZNSt10unique_ptrIN3sql10ConnectionESt14default_deleteIS1_EED2Ev
	movq	%fs:40, %rax
	movq	-8(%rbp), %rcx
	cmpq	%rcx, %rax
	jne	.LBB62_118
# %bb.110:
	addq	$576, %rsp                      # imm = 0x240
	popq	%rbp
	.cfi_def_cfa %rsp, 8
	retq
.LBB62_111:
	.cfi_def_cfa %rbp, 16
.Ltmp399:
	movq	%rax, %rcx
	movl	%edx, %eax
	movq	%rcx, -248(%rbp)
	movl	%eax, -252(%rbp)
.Ltmp400:
	callq	__cxa_end_catch@PLT
.Ltmp401:
	jmp	.LBB62_113
.LBB62_112:
.Ltmp407:
	movq	%rax, %rcx
	movl	%edx, %eax
	movq	%rcx, -248(%rbp)
	movl	%eax, -252(%rbp)
	jmp	.LBB62_114
.LBB62_113:
	jmp	.LBB62_114
.LBB62_114:
	leaq	-16(%rbp), %rdi
	callq	_ZNSt10unique_ptrIN3sql10ConnectionESt14default_deleteIS1_EED2Ev
# %bb.115:
	movq	-248(%rbp), %rax
	movq	%rax, -552(%rbp)                # 8-byte Spill
	movq	%fs:40, %rax
	movq	-8(%rbp), %rcx
	cmpq	%rcx, %rax
	jne	.LBB62_118
# %bb.116:
	movq	-552(%rbp), %rdi                # 8-byte Reload
	callq	_Unwind_Resume@PLT
.LBB62_117:
.Ltmp402:
	movq	%rax, %rdi
                                        # kill: def $eax killed $edx killed $rdx
	callq	__clang_call_terminate
.LBB62_118:
	callq	__stack_chk_fail@PLT
.Lfunc_end62:
	.size	_Z10list_by_idi, .Lfunc_end62-_Z10list_by_idi
	.cfi_endproc
	.section	.gcc_except_table,"a",@progbits
	.p2align	2, 0x0
GCC_except_table62:
.Lexception12:
	.byte	255                             # @LPStart Encoding = omit
	.byte	155                             # @TType Encoding = indirect pcrel sdata4
	.uleb128 .Lttbase7-.Lttbaseref7
.Lttbaseref7:
	.byte	1                               # Call site Encoding = uleb128
	.uleb128 .Lcst_end12-.Lcst_begin12
.Lcst_begin12:
	.uleb128 .Lfunc_begin12-.Lfunc_begin12  # >> Call Site 1 <<
	.uleb128 .Ltmp260-.Lfunc_begin12        #   Call between .Lfunc_begin12 and .Ltmp260
	.byte	0                               #     has no landing pad
	.byte	0                               #   On action: cleanup
	.uleb128 .Ltmp260-.Lfunc_begin12        # >> Call Site 2 <<
	.uleb128 .Ltmp261-.Ltmp260              #   Call between .Ltmp260 and .Ltmp261
	.uleb128 .Ltmp262-.Lfunc_begin12        #     jumps to .Ltmp262
	.byte	3                               #   On action: 2
	.uleb128 .Ltmp263-.Lfunc_begin12        # >> Call Site 3 <<
	.uleb128 .Ltmp266-.Ltmp263              #   Call between .Ltmp263 and .Ltmp266
	.uleb128 .Ltmp267-.Lfunc_begin12        #     jumps to .Ltmp267
	.byte	3                               #   On action: 2
	.uleb128 .Ltmp268-.Lfunc_begin12        # >> Call Site 4 <<
	.uleb128 .Ltmp271-.Ltmp268              #   Call between .Ltmp268 and .Ltmp271
	.uleb128 .Ltmp272-.Lfunc_begin12        #     jumps to .Ltmp272
	.byte	3                               #   On action: 2
	.uleb128 .Ltmp273-.Lfunc_begin12        # >> Call Site 5 <<
	.uleb128 .Ltmp280-.Ltmp273              #   Call between .Ltmp273 and .Ltmp280
	.uleb128 .Ltmp315-.Lfunc_begin12        #     jumps to .Ltmp315
	.byte	3                               #   On action: 2
	.uleb128 .Ltmp281-.Lfunc_begin12        # >> Call Site 6 <<
	.uleb128 .Ltmp282-.Ltmp281              #   Call between .Ltmp281 and .Ltmp282
	.uleb128 .Ltmp283-.Lfunc_begin12        #     jumps to .Ltmp283
	.byte	3                               #   On action: 2
	.uleb128 .Ltmp284-.Lfunc_begin12        # >> Call Site 7 <<
	.uleb128 .Ltmp287-.Ltmp284              #   Call between .Ltmp284 and .Ltmp287
	.uleb128 .Ltmp288-.Lfunc_begin12        #     jumps to .Ltmp288
	.byte	3                               #   On action: 2
	.uleb128 .Ltmp289-.Lfunc_begin12        # >> Call Site 8 <<
	.uleb128 .Ltmp290-.Ltmp289              #   Call between .Ltmp289 and .Ltmp290
	.uleb128 .Ltmp315-.Lfunc_begin12        #     jumps to .Ltmp315
	.byte	3                               #   On action: 2
	.uleb128 .Ltmp291-.Lfunc_begin12        # >> Call Site 9 <<
	.uleb128 .Ltmp294-.Ltmp291              #   Call between .Ltmp291 and .Ltmp294
	.uleb128 .Ltmp295-.Lfunc_begin12        #     jumps to .Ltmp295
	.byte	3                               #   On action: 2
	.uleb128 .Ltmp296-.Lfunc_begin12        # >> Call Site 10 <<
	.uleb128 .Ltmp297-.Ltmp296              #   Call between .Ltmp296 and .Ltmp297
	.uleb128 .Ltmp315-.Lfunc_begin12        #     jumps to .Ltmp315
	.byte	3                               #   On action: 2
	.uleb128 .Ltmp298-.Lfunc_begin12        # >> Call Site 11 <<
	.uleb128 .Ltmp301-.Ltmp298              #   Call between .Ltmp298 and .Ltmp301
	.uleb128 .Ltmp302-.Lfunc_begin12        #     jumps to .Ltmp302
	.byte	3                               #   On action: 2
	.uleb128 .Ltmp303-.Lfunc_begin12        # >> Call Site 12 <<
	.uleb128 .Ltmp304-.Ltmp303              #   Call between .Ltmp303 and .Ltmp304
	.uleb128 .Ltmp315-.Lfunc_begin12        #     jumps to .Ltmp315
	.byte	3                               #   On action: 2
	.uleb128 .Ltmp305-.Lfunc_begin12        # >> Call Site 13 <<
	.uleb128 .Ltmp306-.Ltmp305              #   Call between .Ltmp305 and .Ltmp306
	.uleb128 .Ltmp307-.Lfunc_begin12        #     jumps to .Ltmp307
	.byte	3                               #   On action: 2
	.uleb128 .Ltmp308-.Lfunc_begin12        # >> Call Site 14 <<
	.uleb128 .Ltmp311-.Ltmp308              #   Call between .Ltmp308 and .Ltmp311
	.uleb128 .Ltmp312-.Lfunc_begin12        #     jumps to .Ltmp312
	.byte	3                               #   On action: 2
	.uleb128 .Ltmp313-.Lfunc_begin12        # >> Call Site 15 <<
	.uleb128 .Ltmp314-.Ltmp313              #   Call between .Ltmp313 and .Ltmp314
	.uleb128 .Ltmp315-.Lfunc_begin12        #     jumps to .Ltmp315
	.byte	3                               #   On action: 2
	.uleb128 .Ltmp316-.Lfunc_begin12        # >> Call Site 16 <<
	.uleb128 .Ltmp319-.Ltmp316              #   Call between .Ltmp316 and .Ltmp319
	.uleb128 .Ltmp320-.Lfunc_begin12        #     jumps to .Ltmp320
	.byte	3                               #   On action: 2
	.uleb128 .Ltmp321-.Lfunc_begin12        # >> Call Site 17 <<
	.uleb128 .Ltmp324-.Ltmp321              #   Call between .Ltmp321 and .Ltmp324
	.uleb128 .Ltmp325-.Lfunc_begin12        #     jumps to .Ltmp325
	.byte	3                               #   On action: 2
	.uleb128 .Ltmp326-.Lfunc_begin12        # >> Call Site 18 <<
	.uleb128 .Ltmp363-.Ltmp326              #   Call between .Ltmp326 and .Ltmp363
	.uleb128 .Ltmp384-.Lfunc_begin12        #     jumps to .Ltmp384
	.byte	3                               #   On action: 2
	.uleb128 .Ltmp364-.Lfunc_begin12        # >> Call Site 19 <<
	.uleb128 .Ltmp365-.Ltmp364              #   Call between .Ltmp364 and .Ltmp365
	.uleb128 .Ltmp366-.Lfunc_begin12        #     jumps to .Ltmp366
	.byte	3                               #   On action: 2
	.uleb128 .Ltmp367-.Lfunc_begin12        # >> Call Site 20 <<
	.uleb128 .Ltmp370-.Ltmp367              #   Call between .Ltmp367 and .Ltmp370
	.uleb128 .Ltmp371-.Lfunc_begin12        #     jumps to .Ltmp371
	.byte	3                               #   On action: 2
	.uleb128 .Ltmp372-.Lfunc_begin12        # >> Call Site 21 <<
	.uleb128 .Ltmp373-.Ltmp372              #   Call between .Ltmp372 and .Ltmp373
	.uleb128 .Ltmp384-.Lfunc_begin12        #     jumps to .Ltmp384
	.byte	3                               #   On action: 2
	.uleb128 .Ltmp374-.Lfunc_begin12        # >> Call Site 22 <<
	.uleb128 .Ltmp375-.Ltmp374              #   Call between .Ltmp374 and .Ltmp375
	.uleb128 .Ltmp376-.Lfunc_begin12        #     jumps to .Ltmp376
	.byte	3                               #   On action: 2
	.uleb128 .Ltmp377-.Lfunc_begin12        # >> Call Site 23 <<
	.uleb128 .Ltmp380-.Ltmp377              #   Call between .Ltmp377 and .Ltmp380
	.uleb128 .Ltmp381-.Lfunc_begin12        #     jumps to .Ltmp381
	.byte	3                               #   On action: 2
	.uleb128 .Ltmp382-.Lfunc_begin12        # >> Call Site 24 <<
	.uleb128 .Ltmp383-.Ltmp382              #   Call between .Ltmp382 and .Ltmp383
	.uleb128 .Ltmp384-.Lfunc_begin12        #     jumps to .Ltmp384
	.byte	3                               #   On action: 2
	.uleb128 .Ltmp385-.Lfunc_begin12        # >> Call Site 25 <<
	.uleb128 .Ltmp386-.Ltmp385              #   Call between .Ltmp385 and .Ltmp386
	.uleb128 .Ltmp387-.Lfunc_begin12        #     jumps to .Ltmp387
	.byte	3                               #   On action: 2
	.uleb128 .Ltmp388-.Lfunc_begin12        # >> Call Site 26 <<
	.uleb128 .Ltmp391-.Ltmp388              #   Call between .Ltmp388 and .Ltmp391
	.uleb128 .Ltmp392-.Lfunc_begin12        #     jumps to .Ltmp392
	.byte	3                               #   On action: 2
	.uleb128 .Ltmp328-.Lfunc_begin12        # >> Call Site 27 <<
	.uleb128 .Ltmp329-.Ltmp328              #   Call between .Ltmp328 and .Ltmp329
	.uleb128 .Ltmp384-.Lfunc_begin12        #     jumps to .Ltmp384
	.byte	3                               #   On action: 2
	.uleb128 .Ltmp330-.Lfunc_begin12        # >> Call Site 28 <<
	.uleb128 .Ltmp333-.Ltmp330              #   Call between .Ltmp330 and .Ltmp333
	.uleb128 .Ltmp334-.Lfunc_begin12        #     jumps to .Ltmp334
	.byte	3                               #   On action: 2
	.uleb128 .Ltmp335-.Lfunc_begin12        # >> Call Site 29 <<
	.uleb128 .Ltmp338-.Ltmp335              #   Call between .Ltmp335 and .Ltmp338
	.uleb128 .Ltmp339-.Lfunc_begin12        #     jumps to .Ltmp339
	.byte	3                               #   On action: 2
	.uleb128 .Ltmp340-.Lfunc_begin12        # >> Call Site 30 <<
	.uleb128 .Ltmp345-.Ltmp340              #   Call between .Ltmp340 and .Ltmp345
	.uleb128 .Ltmp346-.Lfunc_begin12        #     jumps to .Ltmp346
	.byte	3                               #   On action: 2
	.uleb128 .Ltmp347-.Lfunc_begin12        # >> Call Site 31 <<
	.uleb128 .Ltmp348-.Ltmp347              #   Call between .Ltmp347 and .Ltmp348
	.uleb128 .Ltmp349-.Lfunc_begin12        #     jumps to .Ltmp349
	.byte	3                               #   On action: 2
	.uleb128 .Ltmp350-.Lfunc_begin12        # >> Call Site 32 <<
	.uleb128 .Ltmp353-.Ltmp350              #   Call between .Ltmp350 and .Ltmp353
	.uleb128 .Ltmp354-.Lfunc_begin12        #     jumps to .Ltmp354
	.byte	3                               #   On action: 2
	.uleb128 .Ltmp355-.Lfunc_begin12        # >> Call Site 33 <<
	.uleb128 .Ltmp358-.Ltmp355              #   Call between .Ltmp355 and .Ltmp358
	.uleb128 .Ltmp359-.Lfunc_begin12        #     jumps to .Ltmp359
	.byte	3                               #   On action: 2
	.uleb128 .Ltmp358-.Lfunc_begin12        # >> Call Site 34 <<
	.uleb128 .Ltmp393-.Ltmp358              #   Call between .Ltmp358 and .Ltmp393
	.byte	0                               #     has no landing pad
	.byte	0                               #   On action: cleanup
	.uleb128 .Ltmp393-.Lfunc_begin12        # >> Call Site 35 <<
	.uleb128 .Ltmp394-.Ltmp393              #   Call between .Ltmp393 and .Ltmp394
	.uleb128 .Ltmp399-.Lfunc_begin12        #     jumps to .Ltmp399
	.byte	0                               #   On action: cleanup
	.uleb128 .Ltmp394-.Lfunc_begin12        # >> Call Site 36 <<
	.uleb128 .Ltmp395-.Ltmp394              #   Call between .Ltmp394 and .Ltmp395
	.byte	0                               #     has no landing pad
	.byte	0                               #   On action: cleanup
	.uleb128 .Ltmp395-.Lfunc_begin12        # >> Call Site 37 <<
	.uleb128 .Ltmp398-.Ltmp395              #   Call between .Ltmp395 and .Ltmp398
	.uleb128 .Ltmp399-.Lfunc_begin12        #     jumps to .Ltmp399
	.byte	0                               #   On action: cleanup
	.uleb128 .Ltmp403-.Lfunc_begin12        # >> Call Site 38 <<
	.uleb128 .Ltmp406-.Ltmp403              #   Call between .Ltmp403 and .Ltmp406
	.uleb128 .Ltmp407-.Lfunc_begin12        #     jumps to .Ltmp407
	.byte	0                               #   On action: cleanup
	.uleb128 .Ltmp400-.Lfunc_begin12        # >> Call Site 39 <<
	.uleb128 .Ltmp401-.Ltmp400              #   Call between .Ltmp400 and .Ltmp401
	.uleb128 .Ltmp402-.Lfunc_begin12        #     jumps to .Ltmp402
	.byte	5                               #   On action: 3
	.uleb128 .Ltmp401-.Lfunc_begin12        # >> Call Site 40 <<
	.uleb128 .Lfunc_end62-.Ltmp401          #   Call between .Ltmp401 and .Lfunc_end62
	.byte	0                               #     has no landing pad
	.byte	0                               #   On action: cleanup
.Lcst_end12:
	.byte	0                               # >> Action Record 1 <<
                                        #   Cleanup
	.byte	0                               #   No further actions
	.byte	1                               # >> Action Record 2 <<
                                        #   Catch TypeInfo 1
	.byte	125                             #   Continue to action 1
	.byte	2                               # >> Action Record 3 <<
                                        #   Catch TypeInfo 2
	.byte	0                               #   No further actions
	.p2align	2, 0x0
                                        # >> Catch TypeInfos <<
	.long	0                               # TypeInfo 2
.Ltmp408:                               # TypeInfo 1
	.long	.L_ZTIN3sql12SQLExceptionE.DW.stub-.Ltmp408
.Lttbase7:
	.p2align	2, 0x0
                                        # -- End function
	.text
	.globl	_Z13list_by_groupNSt7__cxx1112basic_stringIcSt11char_traitsIcESaIcEEE # -- Begin function _Z13list_by_groupNSt7__cxx1112basic_stringIcSt11char_traitsIcESaIcEEE
	.p2align	4, 0x90
	.type	_Z13list_by_groupNSt7__cxx1112basic_stringIcSt11char_traitsIcESaIcEEE,@function
_Z13list_by_groupNSt7__cxx1112basic_stringIcSt11char_traitsIcESaIcEEE: # @_Z13list_by_groupNSt7__cxx1112basic_stringIcSt11char_traitsIcESaIcEEE
.Lfunc_begin13:
	.cfi_startproc
	.cfi_personality 155, DW.ref.__gxx_personality_v0
	.cfi_lsda 27, .Lexception13
# %bb.0:
	pushq	%rbp
	.cfi_def_cfa_offset 16
	.cfi_offset %rbp, -16
	movq	%rsp, %rbp
	.cfi_def_cfa_register %rbp
	subq	$624, %rsp                      # imm = 0x270
	movq	%rdi, -304(%rbp)                # 8-byte Spill
	movq	%fs:40, %rax
	movq	%rax, -8(%rbp)
	movq	%rdi, -256(%rbp)
	leaq	-16(%rbp), %rdi
	movq	%rdi, -296(%rbp)                # 8-byte Spill
	callq	_Z13get_conectionv
	movq	-296(%rbp), %rdi                # 8-byte Reload
	callq	_ZNKSt10unique_ptrIN3sql10ConnectionESt14default_deleteIS1_EEptEv
	movq	%rax, -288(%rbp)                # 8-byte Spill
.Ltmp409:
	leaq	.L.str.47(%rip), %rsi
	leaq	-40(%rbp), %rdi
	callq	_ZN3sql9SQLStringC1EPKc@PLT
.Ltmp410:
	jmp	.LBB63_1
.LBB63_1:
	movq	-288(%rbp), %rdi                # 8-byte Reload
	movq	(%rdi), %rax
	movq	40(%rax), %rax
.Ltmp412:
	leaq	-40(%rbp), %rsi
	callq	*%rax
.Ltmp413:
	movq	%rax, -312(%rbp)                # 8-byte Spill
	jmp	.LBB63_2
.LBB63_2:
.Ltmp414:
	movq	-312(%rbp), %rsi                # 8-byte Reload
	leaq	-32(%rbp), %rdi
	callq	_ZNSt10shared_ptrIN3sql17PreparedStatementEEC2IS1_vEEPT_
.Ltmp415:
	jmp	.LBB63_3
.LBB63_3:
	leaq	-40(%rbp), %rdi
	callq	_ZN3sql9SQLStringD1Ev@PLT
	leaq	-32(%rbp), %rdi
	callq	_ZNKSt19__shared_ptr_accessIN3sql17PreparedStatementELN9__gnu_cxx12_Lock_policyE2ELb0ELb0EEptEv
	movq	-304(%rbp), %rsi                # 8-byte Reload
	movq	%rax, -320(%rbp)                # 8-byte Spill
.Ltmp417:
	leaq	-48(%rbp), %rdi
	callq	_ZN3sql9SQLStringC2ERKNSt7__cxx1112basic_stringIcSt11char_traitsIcESaIcEEE
.Ltmp418:
	jmp	.LBB63_4
.LBB63_4:
	movq	-320(%rbp), %rdi                # 8-byte Reload
	movq	(%rdi), %rax
	movq	520(%rax), %rax
.Ltmp419:
	movl	$1, %esi
	leaq	-48(%rbp), %rdx
	callq	*%rax
.Ltmp420:
	jmp	.LBB63_5
.LBB63_5:
	leaq	-48(%rbp), %rdi
	callq	_ZN3sql9SQLStringD1Ev@PLT
	leaq	-32(%rbp), %rdi
	callq	_ZNKSt19__shared_ptr_accessIN3sql17PreparedStatementELN9__gnu_cxx12_Lock_policyE2ELb0ELb0EEptEv
	movq	%rax, %rdi
	movq	(%rdi), %rax
	movq	456(%rax), %rax
.Ltmp422:
	callq	*%rax
.Ltmp423:
	movq	%rax, -328(%rbp)                # 8-byte Spill
	jmp	.LBB63_6
.LBB63_6:
	movq	-328(%rbp), %rsi                # 8-byte Reload
	leaq	-56(%rbp), %rdi
	callq	_ZNSt10unique_ptrIN3sql9ResultSetESt14default_deleteIS1_EEC2IS3_vEEPS1_
.LBB63_7:                               # =>This Loop Header: Depth=1
                                        #     Child Loop BB63_33 Depth 2
                                        #     Child Loop BB63_82 Depth 2
	leaq	-56(%rbp), %rdi
	callq	_ZNKSt10unique_ptrIN3sql9ResultSetESt14default_deleteIS1_EEptEv
	movq	%rax, %rdi
	movq	(%rdi), %rax
	movq	24(%rax), %rax
.Ltmp425:
	callq	*%rax
.Ltmp426:
	movb	%al, -329(%rbp)                 # 1-byte Spill
	jmp	.LBB63_8
.LBB63_8:                               #   in Loop: Header=BB63_7 Depth=1
	movb	-329(%rbp), %al                 # 1-byte Reload
	testb	$1, %al
	jne	.LBB63_9
	jmp	.LBB63_104
.LBB63_9:                               #   in Loop: Header=BB63_7 Depth=1
	leaq	-56(%rbp), %rdi
	callq	_ZNKSt10unique_ptrIN3sql9ResultSetESt14default_deleteIS1_EEptEv
	movq	%rax, -344(%rbp)                # 8-byte Spill
.Ltmp427:
	leaq	.L.str.19(%rip), %rsi
	leaq	-64(%rbp), %rdi
	callq	_ZN3sql9SQLStringC1EPKc@PLT
.Ltmp428:
	jmp	.LBB63_10
.LBB63_10:                              #   in Loop: Header=BB63_7 Depth=1
	movq	-344(%rbp), %rdi                # 8-byte Reload
	movq	(%rdi), %rax
	movq	256(%rax), %rax
.Ltmp429:
	leaq	-64(%rbp), %rsi
	callq	*%rax
.Ltmp430:
	movl	%eax, -348(%rbp)                # 4-byte Spill
	jmp	.LBB63_11
.LBB63_11:                              #   in Loop: Header=BB63_7 Depth=1
	leaq	-64(%rbp), %rdi
	callq	_ZN3sql9SQLStringD1Ev@PLT
	movl	-348(%rbp), %eax                # 4-byte Reload
	movl	%eax, -272(%rbp)
.Ltmp432:
	leaq	.L.str.20(%rip), %rdi
	xorl	%eax, %eax
                                        # kill: def $al killed $al killed $eax
	callq	printf@PLT
.Ltmp433:
	jmp	.LBB63_12
.LBB63_12:                              #   in Loop: Header=BB63_7 Depth=1
	movl	-272(%rbp), %esi
.Ltmp434:
	leaq	.L.str.21(%rip), %rdi
	xorl	%eax, %eax
                                        # kill: def $al killed $al killed $eax
	callq	printf@PLT
.Ltmp435:
	jmp	.LBB63_13
.LBB63_13:                              #   in Loop: Header=BB63_7 Depth=1
	leaq	-56(%rbp), %rdi
	callq	_ZNKSt10unique_ptrIN3sql9ResultSetESt14default_deleteIS1_EEptEv
	movq	%rax, -360(%rbp)                # 8-byte Spill
.Ltmp436:
	leaq	.L.str.23(%rip), %rsi
	leaq	-80(%rbp), %rdi
	callq	_ZN3sql9SQLStringC1EPKc@PLT
.Ltmp437:
	jmp	.LBB63_14
.LBB63_14:                              #   in Loop: Header=BB63_7 Depth=1
	movq	-360(%rbp), %rsi                # 8-byte Reload
	movq	(%rsi), %rax
	movq	240(%rax), %rax
.Ltmp438:
	leaq	-72(%rbp), %rdi
	leaq	-80(%rbp), %rdx
	callq	*%rax
.Ltmp439:
	jmp	.LBB63_15
.LBB63_15:                              #   in Loop: Header=BB63_7 Depth=1
.Ltmp441:
	leaq	-72(%rbp), %rdi
	callq	_ZNK3sql9SQLString5c_strEv@PLT
.Ltmp442:
	movq	%rax, -368(%rbp)                # 8-byte Spill
	jmp	.LBB63_16
.LBB63_16:                              #   in Loop: Header=BB63_7 Depth=1
.Ltmp443:
	movq	-368(%rbp), %rsi                # 8-byte Reload
	leaq	.L.str.22(%rip), %rdi
	xorl	%eax, %eax
                                        # kill: def $al killed $al killed $eax
	callq	printf@PLT
.Ltmp444:
	jmp	.LBB63_17
.LBB63_17:                              #   in Loop: Header=BB63_7 Depth=1
	leaq	-72(%rbp), %rdi
	callq	_ZN3sql9SQLStringD1Ev@PLT
	leaq	-80(%rbp), %rdi
	callq	_ZN3sql9SQLStringD1Ev@PLT
	leaq	-56(%rbp), %rdi
	callq	_ZNKSt10unique_ptrIN3sql9ResultSetESt14default_deleteIS1_EEptEv
	movq	%rax, -376(%rbp)                # 8-byte Spill
.Ltmp446:
	leaq	.L.str.25(%rip), %rsi
	leaq	-88(%rbp), %rdi
	callq	_ZN3sql9SQLStringC1EPKc@PLT
.Ltmp447:
	jmp	.LBB63_18
.LBB63_18:                              #   in Loop: Header=BB63_7 Depth=1
	movq	-376(%rbp), %rdi                # 8-byte Reload
	movq	(%rdi), %rax
	movq	256(%rax), %rax
.Ltmp448:
	leaq	-88(%rbp), %rsi
	callq	*%rax
.Ltmp449:
	movl	%eax, -380(%rbp)                # 4-byte Spill
	jmp	.LBB63_19
.LBB63_19:                              #   in Loop: Header=BB63_7 Depth=1
.Ltmp450:
	movl	-380(%rbp), %esi                # 4-byte Reload
	leaq	.L.str.24(%rip), %rdi
	xorl	%eax, %eax
                                        # kill: def $al killed $al killed $eax
	callq	printf@PLT
.Ltmp451:
	jmp	.LBB63_20
.LBB63_20:                              #   in Loop: Header=BB63_7 Depth=1
	leaq	-88(%rbp), %rdi
	callq	_ZN3sql9SQLStringD1Ev@PLT
	leaq	-56(%rbp), %rdi
	callq	_ZNKSt10unique_ptrIN3sql9ResultSetESt14default_deleteIS1_EEptEv
	movq	%rax, -392(%rbp)                # 8-byte Spill
.Ltmp453:
	leaq	.L.str.27(%rip), %rsi
	leaq	-96(%rbp), %rdi
	callq	_ZN3sql9SQLStringC1EPKc@PLT
.Ltmp454:
	jmp	.LBB63_21
.LBB63_21:                              #   in Loop: Header=BB63_7 Depth=1
	movq	-392(%rbp), %rdi                # 8-byte Reload
	movq	(%rdi), %rax
	movq	344(%rax), %rax
.Ltmp455:
	leaq	-96(%rbp), %rsi
	callq	*%rax
.Ltmp456:
	fstpt	-404(%rbp)                      # 10-byte Folded Spill
	jmp	.LBB63_22
.LBB63_22:                              #   in Loop: Header=BB63_7 Depth=1
.Ltmp457:
	fldt	-404(%rbp)                      # 10-byte Folded Reload
	movq	%rsp, %rax
	fstpt	(%rax)
	leaq	.L.str.26(%rip), %rdi
	xorl	%eax, %eax
                                        # kill: def $al killed $al killed $eax
	callq	printf@PLT
.Ltmp458:
	jmp	.LBB63_23
.LBB63_23:                              #   in Loop: Header=BB63_7 Depth=1
	leaq	-96(%rbp), %rdi
	callq	_ZN3sql9SQLStringD1Ev@PLT
	leaq	-56(%rbp), %rdi
	callq	_ZNKSt10unique_ptrIN3sql9ResultSetESt14default_deleteIS1_EEptEv
	movq	%rax, -416(%rbp)                # 8-byte Spill
.Ltmp460:
	leaq	.L.str.29(%rip), %rsi
	leaq	-112(%rbp), %rdi
	callq	_ZN3sql9SQLStringC1EPKc@PLT
.Ltmp461:
	jmp	.LBB63_24
.LBB63_24:                              #   in Loop: Header=BB63_7 Depth=1
	movq	-416(%rbp), %rsi                # 8-byte Reload
	movq	(%rsi), %rax
	movq	240(%rax), %rax
.Ltmp462:
	leaq	-104(%rbp), %rdi
	leaq	-112(%rbp), %rdx
	callq	*%rax
.Ltmp463:
	jmp	.LBB63_25
.LBB63_25:                              #   in Loop: Header=BB63_7 Depth=1
.Ltmp465:
	leaq	-104(%rbp), %rdi
	callq	_ZNK3sql9SQLString5c_strEv@PLT
.Ltmp466:
	movq	%rax, -424(%rbp)                # 8-byte Spill
	jmp	.LBB63_26
.LBB63_26:                              #   in Loop: Header=BB63_7 Depth=1
.Ltmp467:
	movq	-424(%rbp), %rsi                # 8-byte Reload
	leaq	.L.str.28(%rip), %rdi
	xorl	%eax, %eax
                                        # kill: def $al killed $al killed $eax
	callq	printf@PLT
.Ltmp468:
	jmp	.LBB63_27
.LBB63_27:                              #   in Loop: Header=BB63_7 Depth=1
	leaq	-104(%rbp), %rdi
	callq	_ZN3sql9SQLStringD1Ev@PLT
	leaq	-112(%rbp), %rdi
	callq	_ZN3sql9SQLStringD1Ev@PLT
	leaq	-16(%rbp), %rdi
	callq	_ZNKSt10unique_ptrIN3sql10ConnectionESt14default_deleteIS1_EEptEv
	movq	%rax, -432(%rbp)                # 8-byte Spill
.Ltmp470:
	leaq	.L.str.30(%rip), %rsi
	leaq	-136(%rbp), %rdi
	callq	_ZN3sql9SQLStringC1EPKc@PLT
.Ltmp471:
	jmp	.LBB63_28
.LBB63_28:                              #   in Loop: Header=BB63_7 Depth=1
	movq	-432(%rbp), %rdi                # 8-byte Reload
	movq	(%rdi), %rax
	movq	40(%rax), %rax
.Ltmp473:
	leaq	-136(%rbp), %rsi
	callq	*%rax
.Ltmp474:
	movq	%rax, -440(%rbp)                # 8-byte Spill
	jmp	.LBB63_29
.LBB63_29:                              #   in Loop: Header=BB63_7 Depth=1
.Ltmp475:
	movq	-440(%rbp), %rsi                # 8-byte Reload
	leaq	-128(%rbp), %rdi
	callq	_ZNSt10shared_ptrIN3sql17PreparedStatementEEC2IS1_vEEPT_
.Ltmp476:
	jmp	.LBB63_30
.LBB63_30:                              #   in Loop: Header=BB63_7 Depth=1
	leaq	-136(%rbp), %rdi
	callq	_ZN3sql9SQLStringD1Ev@PLT
	leaq	-128(%rbp), %rdi
	callq	_ZNKSt19__shared_ptr_accessIN3sql17PreparedStatementELN9__gnu_cxx12_Lock_policyE2ELb0ELb0EEptEv
	movq	%rax, %rdi
	movl	-272(%rbp), %edx
	movq	(%rdi), %rax
	movq	536(%rax), %rax
.Ltmp478:
	movl	$1, %esi
	callq	*%rax
.Ltmp479:
	jmp	.LBB63_31
.LBB63_31:                              #   in Loop: Header=BB63_7 Depth=1
	leaq	-128(%rbp), %rdi
	callq	_ZNKSt19__shared_ptr_accessIN3sql17PreparedStatementELN9__gnu_cxx12_Lock_policyE2ELb0ELb0EEptEv
	movq	%rax, %rdi
	movq	(%rdi), %rax
	movq	456(%rax), %rax
.Ltmp480:
	callq	*%rax
.Ltmp481:
	movq	%rax, -448(%rbp)                # 8-byte Spill
	jmp	.LBB63_32
.LBB63_32:                              #   in Loop: Header=BB63_7 Depth=1
	movq	-448(%rbp), %rsi                # 8-byte Reload
	leaq	-144(%rbp), %rdi
	callq	_ZNSt10unique_ptrIN3sql9ResultSetESt14default_deleteIS1_EEC2IS3_vEEPS1_
.LBB63_33:                              #   Parent Loop BB63_7 Depth=1
                                        # =>  This Inner Loop Header: Depth=2
	leaq	-144(%rbp), %rdi
	callq	_ZNKSt10unique_ptrIN3sql9ResultSetESt14default_deleteIS1_EEptEv
	movq	%rax, %rdi
	movq	(%rdi), %rax
	movq	24(%rax), %rax
.Ltmp483:
	callq	*%rax
.Ltmp484:
	movb	%al, -449(%rbp)                 # 1-byte Spill
	jmp	.LBB63_34
.LBB63_34:                              #   in Loop: Header=BB63_33 Depth=2
	movb	-449(%rbp), %al                 # 1-byte Reload
	testb	$1, %al
	jne	.LBB63_35
	jmp	.LBB63_75
.LBB63_35:                              #   in Loop: Header=BB63_33 Depth=2
.Ltmp517:
	leaq	.L.str.31(%rip), %rdi
	xorl	%eax, %eax
                                        # kill: def $al killed $al killed $eax
	callq	printf@PLT
.Ltmp518:
	jmp	.LBB63_36
.LBB63_36:                              #   in Loop: Header=BB63_33 Depth=2
	leaq	-144(%rbp), %rdi
	callq	_ZNKSt10unique_ptrIN3sql9ResultSetESt14default_deleteIS1_EEptEv
	movq	%rax, -464(%rbp)                # 8-byte Spill
.Ltmp519:
	leaq	.L.str.23(%rip), %rsi
	leaq	-160(%rbp), %rdi
	callq	_ZN3sql9SQLStringC1EPKc@PLT
.Ltmp520:
	jmp	.LBB63_37
.LBB63_37:                              #   in Loop: Header=BB63_33 Depth=2
	movq	-464(%rbp), %rsi                # 8-byte Reload
	movq	(%rsi), %rax
	movq	240(%rax), %rax
.Ltmp521:
	leaq	-152(%rbp), %rdi
	leaq	-160(%rbp), %rdx
	callq	*%rax
.Ltmp522:
	jmp	.LBB63_38
.LBB63_38:                              #   in Loop: Header=BB63_33 Depth=2
.Ltmp524:
	leaq	-152(%rbp), %rdi
	callq	_ZNK3sql9SQLString5c_strEv@PLT
.Ltmp525:
	movq	%rax, -472(%rbp)                # 8-byte Spill
	jmp	.LBB63_39
.LBB63_39:                              #   in Loop: Header=BB63_33 Depth=2
.Ltmp526:
	movq	-472(%rbp), %rsi                # 8-byte Reload
	leaq	.L.str.32(%rip), %rdi
	xorl	%eax, %eax
                                        # kill: def $al killed $al killed $eax
	callq	printf@PLT
.Ltmp527:
	jmp	.LBB63_40
.LBB63_40:                              #   in Loop: Header=BB63_33 Depth=2
	leaq	-152(%rbp), %rdi
	callq	_ZN3sql9SQLStringD1Ev@PLT
	leaq	-160(%rbp), %rdi
	callq	_ZN3sql9SQLStringD1Ev@PLT
	leaq	-144(%rbp), %rdi
	callq	_ZNKSt10unique_ptrIN3sql9ResultSetESt14default_deleteIS1_EEptEv
	movq	%rax, -480(%rbp)                # 8-byte Spill
.Ltmp529:
	leaq	.L.str.34(%rip), %rsi
	leaq	-176(%rbp), %rdi
	callq	_ZN3sql9SQLStringC1EPKc@PLT
.Ltmp530:
	jmp	.LBB63_41
.LBB63_41:                              #   in Loop: Header=BB63_33 Depth=2
	movq	-480(%rbp), %rsi                # 8-byte Reload
	movq	(%rsi), %rax
	movq	240(%rax), %rax
.Ltmp531:
	leaq	-168(%rbp), %rdi
	leaq	-176(%rbp), %rdx
	callq	*%rax
.Ltmp532:
	jmp	.LBB63_42
.LBB63_42:                              #   in Loop: Header=BB63_33 Depth=2
.Ltmp534:
	leaq	-168(%rbp), %rdi
	callq	_ZNK3sql9SQLString5c_strEv@PLT
.Ltmp535:
	movq	%rax, -488(%rbp)                # 8-byte Spill
	jmp	.LBB63_43
.LBB63_43:                              #   in Loop: Header=BB63_33 Depth=2
.Ltmp536:
	movq	-488(%rbp), %rsi                # 8-byte Reload
	leaq	.L.str.33(%rip), %rdi
	xorl	%eax, %eax
                                        # kill: def $al killed $al killed $eax
	callq	printf@PLT
.Ltmp537:
	jmp	.LBB63_44
.LBB63_44:                              #   in Loop: Header=BB63_33 Depth=2
	leaq	-168(%rbp), %rdi
	callq	_ZN3sql9SQLStringD1Ev@PLT
	leaq	-176(%rbp), %rdi
	callq	_ZN3sql9SQLStringD1Ev@PLT
	leaq	-144(%rbp), %rdi
	callq	_ZNKSt10unique_ptrIN3sql9ResultSetESt14default_deleteIS1_EEptEv
	movq	%rax, -496(%rbp)                # 8-byte Spill
.Ltmp539:
	leaq	.L.str.36(%rip), %rsi
	leaq	-192(%rbp), %rdi
	callq	_ZN3sql9SQLStringC1EPKc@PLT
.Ltmp540:
	jmp	.LBB63_45
.LBB63_45:                              #   in Loop: Header=BB63_33 Depth=2
	movq	-496(%rbp), %rsi                # 8-byte Reload
	movq	(%rsi), %rax
	movq	240(%rax), %rax
.Ltmp542:
	leaq	-184(%rbp), %rdi
	leaq	-192(%rbp), %rdx
	callq	*%rax
.Ltmp543:
	jmp	.LBB63_46
.LBB63_46:                              #   in Loop: Header=BB63_33 Depth=2
.Ltmp545:
	leaq	-184(%rbp), %rdi
	callq	_ZNK3sql9SQLString5c_strEv@PLT
.Ltmp546:
	movq	%rax, -504(%rbp)                # 8-byte Spill
	jmp	.LBB63_47
.LBB63_47:                              #   in Loop: Header=BB63_33 Depth=2
.Ltmp547:
	movq	-504(%rbp), %rsi                # 8-byte Reload
	leaq	.L.str.35(%rip), %rdi
	xorl	%eax, %eax
                                        # kill: def $al killed $al killed $eax
	callq	printf@PLT
.Ltmp548:
	jmp	.LBB63_48
.LBB63_48:                              #   in Loop: Header=BB63_33 Depth=2
	leaq	-184(%rbp), %rdi
	callq	_ZN3sql9SQLStringD1Ev@PLT
	leaq	-192(%rbp), %rdi
	callq	_ZN3sql9SQLStringD1Ev@PLT
	jmp	.LBB63_33
.LBB63_49:
.Ltmp411:
	movq	%rax, %rcx
	movl	%edx, %eax
	movq	%rcx, -264(%rbp)
	movl	%eax, -268(%rbp)
	jmp	.LBB63_107
.LBB63_50:
.Ltmp416:
	movq	%rax, %rcx
	movl	%edx, %eax
	movq	%rcx, -264(%rbp)
	movl	%eax, -268(%rbp)
	leaq	-40(%rbp), %rdi
	callq	_ZN3sql9SQLStringD1Ev@PLT
	jmp	.LBB63_107
.LBB63_51:
.Ltmp424:
	movq	%rax, %rcx
	movl	%edx, %eax
	movq	%rcx, -264(%rbp)
	movl	%eax, -268(%rbp)
	jmp	.LBB63_106
.LBB63_52:
.Ltmp421:
	movq	%rax, %rcx
	movl	%edx, %eax
	movq	%rcx, -264(%rbp)
	movl	%eax, -268(%rbp)
	leaq	-48(%rbp), %rdi
	callq	_ZN3sql9SQLStringD1Ev@PLT
	jmp	.LBB63_106
.LBB63_53:
.Ltmp472:
	movq	%rax, %rcx
	movl	%edx, %eax
	movq	%rcx, -264(%rbp)
	movl	%eax, -268(%rbp)
	jmp	.LBB63_105
.LBB63_54:
.Ltmp431:
	movq	%rax, %rcx
	movl	%edx, %eax
	movq	%rcx, -264(%rbp)
	movl	%eax, -268(%rbp)
	leaq	-64(%rbp), %rdi
	callq	_ZN3sql9SQLStringD1Ev@PLT
	jmp	.LBB63_105
.LBB63_55:
.Ltmp440:
	movq	%rax, %rcx
	movl	%edx, %eax
	movq	%rcx, -264(%rbp)
	movl	%eax, -268(%rbp)
	jmp	.LBB63_57
.LBB63_56:
.Ltmp445:
	movq	%rax, %rcx
	movl	%edx, %eax
	movq	%rcx, -264(%rbp)
	movl	%eax, -268(%rbp)
	leaq	-72(%rbp), %rdi
	callq	_ZN3sql9SQLStringD1Ev@PLT
.LBB63_57:
	leaq	-80(%rbp), %rdi
	callq	_ZN3sql9SQLStringD1Ev@PLT
	jmp	.LBB63_105
.LBB63_58:
.Ltmp452:
	movq	%rax, %rcx
	movl	%edx, %eax
	movq	%rcx, -264(%rbp)
	movl	%eax, -268(%rbp)
	leaq	-88(%rbp), %rdi
	callq	_ZN3sql9SQLStringD1Ev@PLT
	jmp	.LBB63_105
.LBB63_59:
.Ltmp459:
	movq	%rax, %rcx
	movl	%edx, %eax
	movq	%rcx, -264(%rbp)
	movl	%eax, -268(%rbp)
	leaq	-96(%rbp), %rdi
	callq	_ZN3sql9SQLStringD1Ev@PLT
	jmp	.LBB63_105
.LBB63_60:
.Ltmp464:
	movq	%rax, %rcx
	movl	%edx, %eax
	movq	%rcx, -264(%rbp)
	movl	%eax, -268(%rbp)
	jmp	.LBB63_62
.LBB63_61:
.Ltmp469:
	movq	%rax, %rcx
	movl	%edx, %eax
	movq	%rcx, -264(%rbp)
	movl	%eax, -268(%rbp)
	leaq	-104(%rbp), %rdi
	callq	_ZN3sql9SQLStringD1Ev@PLT
.LBB63_62:
	leaq	-112(%rbp), %rdi
	callq	_ZN3sql9SQLStringD1Ev@PLT
	jmp	.LBB63_105
.LBB63_63:
.Ltmp477:
	movq	%rax, %rcx
	movl	%edx, %eax
	movq	%rcx, -264(%rbp)
	movl	%eax, -268(%rbp)
	leaq	-136(%rbp), %rdi
	callq	_ZN3sql9SQLStringD1Ev@PLT
	jmp	.LBB63_105
.LBB63_64:
.Ltmp482:
	movq	%rax, %rcx
	movl	%edx, %eax
	movq	%rcx, -264(%rbp)
	movl	%eax, -268(%rbp)
	jmp	.LBB63_103
.LBB63_65:
.Ltmp541:
	movq	%rax, %rcx
	movl	%edx, %eax
	movq	%rcx, -264(%rbp)
	movl	%eax, -268(%rbp)
	jmp	.LBB63_102
.LBB63_66:
.Ltmp523:
	movq	%rax, %rcx
	movl	%edx, %eax
	movq	%rcx, -264(%rbp)
	movl	%eax, -268(%rbp)
	jmp	.LBB63_68
.LBB63_67:
.Ltmp528:
	movq	%rax, %rcx
	movl	%edx, %eax
	movq	%rcx, -264(%rbp)
	movl	%eax, -268(%rbp)
	leaq	-152(%rbp), %rdi
	callq	_ZN3sql9SQLStringD1Ev@PLT
.LBB63_68:
	leaq	-160(%rbp), %rdi
	callq	_ZN3sql9SQLStringD1Ev@PLT
	jmp	.LBB63_102
.LBB63_69:
.Ltmp533:
	movq	%rax, %rcx
	movl	%edx, %eax
	movq	%rcx, -264(%rbp)
	movl	%eax, -268(%rbp)
	jmp	.LBB63_71
.LBB63_70:
.Ltmp538:
	movq	%rax, %rcx
	movl	%edx, %eax
	movq	%rcx, -264(%rbp)
	movl	%eax, -268(%rbp)
	leaq	-168(%rbp), %rdi
	callq	_ZN3sql9SQLStringD1Ev@PLT
.LBB63_71:
	leaq	-176(%rbp), %rdi
	callq	_ZN3sql9SQLStringD1Ev@PLT
	jmp	.LBB63_102
.LBB63_72:
.Ltmp544:
	movq	%rax, %rcx
	movl	%edx, %eax
	movq	%rcx, -264(%rbp)
	movl	%eax, -268(%rbp)
	jmp	.LBB63_74
.LBB63_73:
.Ltmp549:
	movq	%rax, %rcx
	movl	%edx, %eax
	movq	%rcx, -264(%rbp)
	movl	%eax, -268(%rbp)
	leaq	-184(%rbp), %rdi
	callq	_ZN3sql9SQLStringD1Ev@PLT
.LBB63_74:
	leaq	-192(%rbp), %rdi
	callq	_ZN3sql9SQLStringD1Ev@PLT
	jmp	.LBB63_102
.LBB63_75:                              #   in Loop: Header=BB63_7 Depth=1
	leaq	-16(%rbp), %rdi
	callq	_ZNKSt10unique_ptrIN3sql10ConnectionESt14default_deleteIS1_EEptEv
	movq	%rax, -512(%rbp)                # 8-byte Spill
.Ltmp485:
	leaq	.L.str.37(%rip), %rsi
	leaq	-216(%rbp), %rdi
	callq	_ZN3sql9SQLStringC1EPKc@PLT
.Ltmp486:
	jmp	.LBB63_76
.LBB63_76:                              #   in Loop: Header=BB63_7 Depth=1
	movq	-512(%rbp), %rdi                # 8-byte Reload
	movq	(%rdi), %rax
	movq	40(%rax), %rax
.Ltmp487:
	leaq	-216(%rbp), %rsi
	callq	*%rax
.Ltmp488:
	movq	%rax, -520(%rbp)                # 8-byte Spill
	jmp	.LBB63_77
.LBB63_77:                              #   in Loop: Header=BB63_7 Depth=1
.Ltmp489:
	movq	-520(%rbp), %rsi                # 8-byte Reload
	leaq	-208(%rbp), %rdi
	callq	_ZNSt10shared_ptrIN3sql17PreparedStatementEEC2IS1_vEEPT_
.Ltmp490:
	jmp	.LBB63_78
.LBB63_78:                              #   in Loop: Header=BB63_7 Depth=1
	leaq	-216(%rbp), %rdi
	callq	_ZN3sql9SQLStringD1Ev@PLT
	leaq	-208(%rbp), %rdi
	callq	_ZNKSt19__shared_ptr_accessIN3sql17PreparedStatementELN9__gnu_cxx12_Lock_policyE2ELb0ELb0EEptEv
	movq	%rax, %rdi
	movl	-272(%rbp), %edx
	movq	(%rdi), %rax
	movq	536(%rax), %rax
.Ltmp492:
	movl	$1, %esi
	callq	*%rax
.Ltmp493:
	jmp	.LBB63_79
.LBB63_79:                              #   in Loop: Header=BB63_7 Depth=1
	leaq	-208(%rbp), %rdi
	callq	_ZNKSt19__shared_ptr_accessIN3sql17PreparedStatementELN9__gnu_cxx12_Lock_policyE2ELb0ELb0EEptEv
	movq	%rax, %rdi
	movq	(%rdi), %rax
	movq	456(%rax), %rax
.Ltmp494:
	callq	*%rax
.Ltmp495:
	movq	%rax, -528(%rbp)                # 8-byte Spill
	jmp	.LBB63_80
.LBB63_80:                              #   in Loop: Header=BB63_7 Depth=1
	movq	-528(%rbp), %rsi                # 8-byte Reload
	leaq	-224(%rbp), %rdi
	callq	_ZNSt10unique_ptrIN3sql9ResultSetESt14default_deleteIS1_EEC2IS3_vEEPS1_
.Ltmp497:
	leaq	.L.str.38(%rip), %rdi
	xorl	%eax, %eax
                                        # kill: def $al killed $al killed $eax
	callq	printf@PLT
.Ltmp498:
	jmp	.LBB63_81
.LBB63_81:                              #   in Loop: Header=BB63_7 Depth=1
	jmp	.LBB63_82
.LBB63_82:                              #   Parent Loop BB63_7 Depth=1
                                        # =>  This Inner Loop Header: Depth=2
	leaq	-224(%rbp), %rdi
	callq	_ZNKSt10unique_ptrIN3sql9ResultSetESt14default_deleteIS1_EEptEv
	movq	%rax, %rdi
	movq	(%rdi), %rax
	movq	24(%rax), %rax
.Ltmp499:
	callq	*%rax
.Ltmp500:
	movb	%al, -529(%rbp)                 # 1-byte Spill
	jmp	.LBB63_83
.LBB63_83:                              #   in Loop: Header=BB63_82 Depth=2
	movb	-529(%rbp), %al                 # 1-byte Reload
	testb	$1, %al
	jne	.LBB63_84
	jmp	.LBB63_99
.LBB63_84:                              #   in Loop: Header=BB63_82 Depth=2
	leaq	-224(%rbp), %rdi
	callq	_ZNKSt10unique_ptrIN3sql9ResultSetESt14default_deleteIS1_EEptEv
	movq	%rax, -544(%rbp)                # 8-byte Spill
.Ltmp501:
	leaq	.L.str.40(%rip), %rsi
	leaq	-240(%rbp), %rdi
	callq	_ZN3sql9SQLStringC1EPKc@PLT
.Ltmp502:
	jmp	.LBB63_85
.LBB63_85:                              #   in Loop: Header=BB63_82 Depth=2
	movq	-544(%rbp), %rsi                # 8-byte Reload
	movq	(%rsi), %rax
	movq	240(%rax), %rax
.Ltmp504:
	leaq	-232(%rbp), %rdi
	leaq	-240(%rbp), %rdx
	callq	*%rax
.Ltmp505:
	jmp	.LBB63_86
.LBB63_86:                              #   in Loop: Header=BB63_82 Depth=2
.Ltmp507:
	leaq	-232(%rbp), %rdi
	callq	_ZNK3sql9SQLString5c_strEv@PLT
.Ltmp508:
	movq	%rax, -552(%rbp)                # 8-byte Spill
	jmp	.LBB63_87
.LBB63_87:                              #   in Loop: Header=BB63_82 Depth=2
	leaq	-224(%rbp), %rdi
	callq	_ZNKSt10unique_ptrIN3sql9ResultSetESt14default_deleteIS1_EEptEv
	movq	%rax, -560(%rbp)                # 8-byte Spill
.Ltmp509:
	leaq	.L.str.41(%rip), %rsi
	leaq	-248(%rbp), %rdi
	callq	_ZN3sql9SQLStringC1EPKc@PLT
.Ltmp510:
	jmp	.LBB63_88
.LBB63_88:                              #   in Loop: Header=BB63_82 Depth=2
	movq	-560(%rbp), %rdi                # 8-byte Reload
	movq	(%rdi), %rax
	movq	344(%rax), %rax
.Ltmp512:
	leaq	-248(%rbp), %rsi
	callq	*%rax
.Ltmp513:
	fstpt	-572(%rbp)                      # 10-byte Folded Spill
	jmp	.LBB63_89
.LBB63_89:                              #   in Loop: Header=BB63_82 Depth=2
.Ltmp514:
	movq	-552(%rbp), %rsi                # 8-byte Reload
	fldt	-572(%rbp)                      # 10-byte Folded Reload
	movq	%rsp, %rax
	fstpt	(%rax)
	leaq	.L.str.39(%rip), %rdi
	xorl	%eax, %eax
                                        # kill: def $al killed $al killed $eax
	callq	printf@PLT
.Ltmp515:
	jmp	.LBB63_90
.LBB63_90:                              #   in Loop: Header=BB63_82 Depth=2
	leaq	-248(%rbp), %rdi
	callq	_ZN3sql9SQLStringD1Ev@PLT
	leaq	-232(%rbp), %rdi
	callq	_ZN3sql9SQLStringD1Ev@PLT
	leaq	-240(%rbp), %rdi
	callq	_ZN3sql9SQLStringD1Ev@PLT
	jmp	.LBB63_82
.LBB63_91:
.Ltmp491:
	movq	%rax, %rcx
	movl	%edx, %eax
	movq	%rcx, -264(%rbp)
	movl	%eax, -268(%rbp)
	leaq	-216(%rbp), %rdi
	callq	_ZN3sql9SQLStringD1Ev@PLT
	jmp	.LBB63_102
.LBB63_92:
.Ltmp496:
	movq	%rax, %rcx
	movl	%edx, %eax
	movq	%rcx, -264(%rbp)
	movl	%eax, -268(%rbp)
	jmp	.LBB63_101
.LBB63_93:
.Ltmp503:
	movq	%rax, %rcx
	movl	%edx, %eax
	movq	%rcx, -264(%rbp)
	movl	%eax, -268(%rbp)
	jmp	.LBB63_100
.LBB63_94:
.Ltmp506:
	movq	%rax, %rcx
	movl	%edx, %eax
	movq	%rcx, -264(%rbp)
	movl	%eax, -268(%rbp)
	jmp	.LBB63_98
.LBB63_95:
.Ltmp511:
	movq	%rax, %rcx
	movl	%edx, %eax
	movq	%rcx, -264(%rbp)
	movl	%eax, -268(%rbp)
	jmp	.LBB63_97
.LBB63_96:
.Ltmp516:
	movq	%rax, %rcx
	movl	%edx, %eax
	movq	%rcx, -264(%rbp)
	movl	%eax, -268(%rbp)
	leaq	-248(%rbp), %rdi
	callq	_ZN3sql9SQLStringD1Ev@PLT
.LBB63_97:
	leaq	-232(%rbp), %rdi
	callq	_ZN3sql9SQLStringD1Ev@PLT
.LBB63_98:
	leaq	-240(%rbp), %rdi
	callq	_ZN3sql9SQLStringD1Ev@PLT
	jmp	.LBB63_100
.LBB63_99:                              #   in Loop: Header=BB63_7 Depth=1
	leaq	-224(%rbp), %rdi
	callq	_ZNSt10unique_ptrIN3sql9ResultSetESt14default_deleteIS1_EED2Ev
	leaq	-208(%rbp), %rdi
	callq	_ZNSt10shared_ptrIN3sql17PreparedStatementEED2Ev
	leaq	-144(%rbp), %rdi
	callq	_ZNSt10unique_ptrIN3sql9ResultSetESt14default_deleteIS1_EED2Ev
	leaq	-128(%rbp), %rdi
	callq	_ZNSt10shared_ptrIN3sql17PreparedStatementEED2Ev
	jmp	.LBB63_7
.LBB63_100:
	leaq	-224(%rbp), %rdi
	callq	_ZNSt10unique_ptrIN3sql9ResultSetESt14default_deleteIS1_EED2Ev
.LBB63_101:
	leaq	-208(%rbp), %rdi
	callq	_ZNSt10shared_ptrIN3sql17PreparedStatementEED2Ev
.LBB63_102:
	leaq	-144(%rbp), %rdi
	callq	_ZNSt10unique_ptrIN3sql9ResultSetESt14default_deleteIS1_EED2Ev
.LBB63_103:
	leaq	-128(%rbp), %rdi
	callq	_ZNSt10shared_ptrIN3sql17PreparedStatementEED2Ev
	jmp	.LBB63_105
.LBB63_104:
	leaq	-56(%rbp), %rdi
	callq	_ZNSt10unique_ptrIN3sql9ResultSetESt14default_deleteIS1_EED2Ev
	leaq	-32(%rbp), %rdi
	callq	_ZNSt10shared_ptrIN3sql17PreparedStatementEED2Ev
	jmp	.LBB63_113
.LBB63_105:
	leaq	-56(%rbp), %rdi
	callq	_ZNSt10unique_ptrIN3sql9ResultSetESt14default_deleteIS1_EED2Ev
.LBB63_106:
	leaq	-32(%rbp), %rdi
	callq	_ZNSt10shared_ptrIN3sql17PreparedStatementEED2Ev
.LBB63_107:
	movl	-268(%rbp), %eax
	movl	$1, %ecx
	cmpl	%ecx, %eax
	jne	.LBB63_119
# %bb.108:
	movq	-264(%rbp), %rdi
	callq	__cxa_begin_catch@PLT
	movq	%rax, -280(%rbp)
.Ltmp550:
	movq	_ZSt4cerr@GOTPCREL(%rip), %rdi
	leaq	.L.str.46(%rip), %rsi
	callq	_ZStlsISt11char_traitsIcEERSt13basic_ostreamIcT_ES5_PKc@PLT
.Ltmp551:
	movq	%rax, -584(%rbp)                # 8-byte Spill
	jmp	.LBB63_109
.LBB63_109:
	movq	-280(%rbp), %rdi
	movq	(%rdi), %rax
	movq	16(%rax), %rax
	callq	*%rax
	movq	-584(%rbp), %rdi                # 8-byte Reload
	movq	%rax, %rsi
.Ltmp552:
	callq	_ZStlsISt11char_traitsIcEERSt13basic_ostreamIcT_ES5_PKc@PLT
.Ltmp553:
	movq	%rax, -592(%rbp)                # 8-byte Spill
	jmp	.LBB63_110
.LBB63_110:
.Ltmp554:
	movq	-592(%rbp), %rdi                # 8-byte Reload
	movq	_ZSt4endlIcSt11char_traitsIcEERSt13basic_ostreamIT_T0_ES6_@GOTPCREL(%rip), %rsi
	callq	_ZNSolsEPFRSoS_E@PLT
.Ltmp555:
	jmp	.LBB63_111
.LBB63_111:
.Ltmp560:
	callq	__cxa_end_catch@PLT
.Ltmp561:
	jmp	.LBB63_112
.LBB63_112:
	jmp	.LBB63_113
.LBB63_113:
	leaq	-16(%rbp), %rdi
	callq	_ZNKSt10unique_ptrIN3sql10ConnectionESt14default_deleteIS1_EEptEv
	movq	%rax, %rdi
	movq	(%rdi), %rax
	movq	160(%rax), %rax
.Ltmp562:
	callq	*%rax
.Ltmp563:
	jmp	.LBB63_114
.LBB63_114:
	leaq	-16(%rbp), %rdi
	callq	_ZNSt10unique_ptrIN3sql10ConnectionESt14default_deleteIS1_EED2Ev
	movq	%fs:40, %rax
	movq	-8(%rbp), %rcx
	cmpq	%rcx, %rax
	jne	.LBB63_123
# %bb.115:
	addq	$624, %rsp                      # imm = 0x270
	popq	%rbp
	.cfi_def_cfa %rsp, 8
	retq
.LBB63_116:
	.cfi_def_cfa %rbp, 16
.Ltmp556:
	movq	%rax, %rcx
	movl	%edx, %eax
	movq	%rcx, -264(%rbp)
	movl	%eax, -268(%rbp)
.Ltmp557:
	callq	__cxa_end_catch@PLT
.Ltmp558:
	jmp	.LBB63_118
.LBB63_117:
.Ltmp564:
	movq	%rax, %rcx
	movl	%edx, %eax
	movq	%rcx, -264(%rbp)
	movl	%eax, -268(%rbp)
	jmp	.LBB63_119
.LBB63_118:
	jmp	.LBB63_119
.LBB63_119:
	leaq	-16(%rbp), %rdi
	callq	_ZNSt10unique_ptrIN3sql10ConnectionESt14default_deleteIS1_EED2Ev
# %bb.120:
	movq	-264(%rbp), %rax
	movq	%rax, -600(%rbp)                # 8-byte Spill
	movq	%fs:40, %rax
	movq	-8(%rbp), %rcx
	cmpq	%rcx, %rax
	jne	.LBB63_123
# %bb.121:
	movq	-600(%rbp), %rdi                # 8-byte Reload
	callq	_Unwind_Resume@PLT
.LBB63_122:
.Ltmp559:
	movq	%rax, %rdi
                                        # kill: def $eax killed $edx killed $rdx
	callq	__clang_call_terminate
.LBB63_123:
	callq	__stack_chk_fail@PLT
.Lfunc_end63:
	.size	_Z13list_by_groupNSt7__cxx1112basic_stringIcSt11char_traitsIcESaIcEEE, .Lfunc_end63-_Z13list_by_groupNSt7__cxx1112basic_stringIcSt11char_traitsIcESaIcEEE
	.cfi_endproc
	.section	.gcc_except_table,"a",@progbits
	.p2align	2, 0x0
GCC_except_table63:
.Lexception13:
	.byte	255                             # @LPStart Encoding = omit
	.byte	155                             # @TType Encoding = indirect pcrel sdata4
	.uleb128 .Lttbase8-.Lttbaseref8
.Lttbaseref8:
	.byte	1                               # Call site Encoding = uleb128
	.uleb128 .Lcst_end13-.Lcst_begin13
.Lcst_begin13:
	.uleb128 .Lfunc_begin13-.Lfunc_begin13  # >> Call Site 1 <<
	.uleb128 .Ltmp409-.Lfunc_begin13        #   Call between .Lfunc_begin13 and .Ltmp409
	.byte	0                               #     has no landing pad
	.byte	0                               #   On action: cleanup
	.uleb128 .Ltmp409-.Lfunc_begin13        # >> Call Site 2 <<
	.uleb128 .Ltmp410-.Ltmp409              #   Call between .Ltmp409 and .Ltmp410
	.uleb128 .Ltmp411-.Lfunc_begin13        #     jumps to .Ltmp411
	.byte	3                               #   On action: 2
	.uleb128 .Ltmp412-.Lfunc_begin13        # >> Call Site 3 <<
	.uleb128 .Ltmp415-.Ltmp412              #   Call between .Ltmp412 and .Ltmp415
	.uleb128 .Ltmp416-.Lfunc_begin13        #     jumps to .Ltmp416
	.byte	3                               #   On action: 2
	.uleb128 .Ltmp417-.Lfunc_begin13        # >> Call Site 4 <<
	.uleb128 .Ltmp418-.Ltmp417              #   Call between .Ltmp417 and .Ltmp418
	.uleb128 .Ltmp424-.Lfunc_begin13        #     jumps to .Ltmp424
	.byte	3                               #   On action: 2
	.uleb128 .Ltmp419-.Lfunc_begin13        # >> Call Site 5 <<
	.uleb128 .Ltmp420-.Ltmp419              #   Call between .Ltmp419 and .Ltmp420
	.uleb128 .Ltmp421-.Lfunc_begin13        #     jumps to .Ltmp421
	.byte	3                               #   On action: 2
	.uleb128 .Ltmp422-.Lfunc_begin13        # >> Call Site 6 <<
	.uleb128 .Ltmp423-.Ltmp422              #   Call between .Ltmp422 and .Ltmp423
	.uleb128 .Ltmp424-.Lfunc_begin13        #     jumps to .Ltmp424
	.byte	3                               #   On action: 2
	.uleb128 .Ltmp425-.Lfunc_begin13        # >> Call Site 7 <<
	.uleb128 .Ltmp428-.Ltmp425              #   Call between .Ltmp425 and .Ltmp428
	.uleb128 .Ltmp472-.Lfunc_begin13        #     jumps to .Ltmp472
	.byte	3                               #   On action: 2
	.uleb128 .Ltmp429-.Lfunc_begin13        # >> Call Site 8 <<
	.uleb128 .Ltmp430-.Ltmp429              #   Call between .Ltmp429 and .Ltmp430
	.uleb128 .Ltmp431-.Lfunc_begin13        #     jumps to .Ltmp431
	.byte	3                               #   On action: 2
	.uleb128 .Ltmp432-.Lfunc_begin13        # >> Call Site 9 <<
	.uleb128 .Ltmp437-.Ltmp432              #   Call between .Ltmp432 and .Ltmp437
	.uleb128 .Ltmp472-.Lfunc_begin13        #     jumps to .Ltmp472
	.byte	3                               #   On action: 2
	.uleb128 .Ltmp438-.Lfunc_begin13        # >> Call Site 10 <<
	.uleb128 .Ltmp439-.Ltmp438              #   Call between .Ltmp438 and .Ltmp439
	.uleb128 .Ltmp440-.Lfunc_begin13        #     jumps to .Ltmp440
	.byte	3                               #   On action: 2
	.uleb128 .Ltmp441-.Lfunc_begin13        # >> Call Site 11 <<
	.uleb128 .Ltmp444-.Ltmp441              #   Call between .Ltmp441 and .Ltmp444
	.uleb128 .Ltmp445-.Lfunc_begin13        #     jumps to .Ltmp445
	.byte	3                               #   On action: 2
	.uleb128 .Ltmp446-.Lfunc_begin13        # >> Call Site 12 <<
	.uleb128 .Ltmp447-.Ltmp446              #   Call between .Ltmp446 and .Ltmp447
	.uleb128 .Ltmp472-.Lfunc_begin13        #     jumps to .Ltmp472
	.byte	3                               #   On action: 2
	.uleb128 .Ltmp448-.Lfunc_begin13        # >> Call Site 13 <<
	.uleb128 .Ltmp451-.Ltmp448              #   Call between .Ltmp448 and .Ltmp451
	.uleb128 .Ltmp452-.Lfunc_begin13        #     jumps to .Ltmp452
	.byte	3                               #   On action: 2
	.uleb128 .Ltmp453-.Lfunc_begin13        # >> Call Site 14 <<
	.uleb128 .Ltmp454-.Ltmp453              #   Call between .Ltmp453 and .Ltmp454
	.uleb128 .Ltmp472-.Lfunc_begin13        #     jumps to .Ltmp472
	.byte	3                               #   On action: 2
	.uleb128 .Ltmp455-.Lfunc_begin13        # >> Call Site 15 <<
	.uleb128 .Ltmp458-.Ltmp455              #   Call between .Ltmp455 and .Ltmp458
	.uleb128 .Ltmp459-.Lfunc_begin13        #     jumps to .Ltmp459
	.byte	3                               #   On action: 2
	.uleb128 .Ltmp460-.Lfunc_begin13        # >> Call Site 16 <<
	.uleb128 .Ltmp461-.Ltmp460              #   Call between .Ltmp460 and .Ltmp461
	.uleb128 .Ltmp472-.Lfunc_begin13        #     jumps to .Ltmp472
	.byte	3                               #   On action: 2
	.uleb128 .Ltmp462-.Lfunc_begin13        # >> Call Site 17 <<
	.uleb128 .Ltmp463-.Ltmp462              #   Call between .Ltmp462 and .Ltmp463
	.uleb128 .Ltmp464-.Lfunc_begin13        #     jumps to .Ltmp464
	.byte	3                               #   On action: 2
	.uleb128 .Ltmp465-.Lfunc_begin13        # >> Call Site 18 <<
	.uleb128 .Ltmp468-.Ltmp465              #   Call between .Ltmp465 and .Ltmp468
	.uleb128 .Ltmp469-.Lfunc_begin13        #     jumps to .Ltmp469
	.byte	3                               #   On action: 2
	.uleb128 .Ltmp470-.Lfunc_begin13        # >> Call Site 19 <<
	.uleb128 .Ltmp471-.Ltmp470              #   Call between .Ltmp470 and .Ltmp471
	.uleb128 .Ltmp472-.Lfunc_begin13        #     jumps to .Ltmp472
	.byte	3                               #   On action: 2
	.uleb128 .Ltmp473-.Lfunc_begin13        # >> Call Site 20 <<
	.uleb128 .Ltmp476-.Ltmp473              #   Call between .Ltmp473 and .Ltmp476
	.uleb128 .Ltmp477-.Lfunc_begin13        #     jumps to .Ltmp477
	.byte	3                               #   On action: 2
	.uleb128 .Ltmp478-.Lfunc_begin13        # >> Call Site 21 <<
	.uleb128 .Ltmp481-.Ltmp478              #   Call between .Ltmp478 and .Ltmp481
	.uleb128 .Ltmp482-.Lfunc_begin13        #     jumps to .Ltmp482
	.byte	3                               #   On action: 2
	.uleb128 .Ltmp483-.Lfunc_begin13        # >> Call Site 22 <<
	.uleb128 .Ltmp520-.Ltmp483              #   Call between .Ltmp483 and .Ltmp520
	.uleb128 .Ltmp541-.Lfunc_begin13        #     jumps to .Ltmp541
	.byte	3                               #   On action: 2
	.uleb128 .Ltmp521-.Lfunc_begin13        # >> Call Site 23 <<
	.uleb128 .Ltmp522-.Ltmp521              #   Call between .Ltmp521 and .Ltmp522
	.uleb128 .Ltmp523-.Lfunc_begin13        #     jumps to .Ltmp523
	.byte	3                               #   On action: 2
	.uleb128 .Ltmp524-.Lfunc_begin13        # >> Call Site 24 <<
	.uleb128 .Ltmp527-.Ltmp524              #   Call between .Ltmp524 and .Ltmp527
	.uleb128 .Ltmp528-.Lfunc_begin13        #     jumps to .Ltmp528
	.byte	3                               #   On action: 2
	.uleb128 .Ltmp529-.Lfunc_begin13        # >> Call Site 25 <<
	.uleb128 .Ltmp530-.Ltmp529              #   Call between .Ltmp529 and .Ltmp530
	.uleb128 .Ltmp541-.Lfunc_begin13        #     jumps to .Ltmp541
	.byte	3                               #   On action: 2
	.uleb128 .Ltmp531-.Lfunc_begin13        # >> Call Site 26 <<
	.uleb128 .Ltmp532-.Ltmp531              #   Call between .Ltmp531 and .Ltmp532
	.uleb128 .Ltmp533-.Lfunc_begin13        #     jumps to .Ltmp533
	.byte	3                               #   On action: 2
	.uleb128 .Ltmp534-.Lfunc_begin13        # >> Call Site 27 <<
	.uleb128 .Ltmp537-.Ltmp534              #   Call between .Ltmp534 and .Ltmp537
	.uleb128 .Ltmp538-.Lfunc_begin13        #     jumps to .Ltmp538
	.byte	3                               #   On action: 2
	.uleb128 .Ltmp539-.Lfunc_begin13        # >> Call Site 28 <<
	.uleb128 .Ltmp540-.Ltmp539              #   Call between .Ltmp539 and .Ltmp540
	.uleb128 .Ltmp541-.Lfunc_begin13        #     jumps to .Ltmp541
	.byte	3                               #   On action: 2
	.uleb128 .Ltmp542-.Lfunc_begin13        # >> Call Site 29 <<
	.uleb128 .Ltmp543-.Ltmp542              #   Call between .Ltmp542 and .Ltmp543
	.uleb128 .Ltmp544-.Lfunc_begin13        #     jumps to .Ltmp544
	.byte	3                               #   On action: 2
	.uleb128 .Ltmp545-.Lfunc_begin13        # >> Call Site 30 <<
	.uleb128 .Ltmp548-.Ltmp545              #   Call between .Ltmp545 and .Ltmp548
	.uleb128 .Ltmp549-.Lfunc_begin13        #     jumps to .Ltmp549
	.byte	3                               #   On action: 2
	.uleb128 .Ltmp485-.Lfunc_begin13        # >> Call Site 31 <<
	.uleb128 .Ltmp486-.Ltmp485              #   Call between .Ltmp485 and .Ltmp486
	.uleb128 .Ltmp541-.Lfunc_begin13        #     jumps to .Ltmp541
	.byte	3                               #   On action: 2
	.uleb128 .Ltmp487-.Lfunc_begin13        # >> Call Site 32 <<
	.uleb128 .Ltmp490-.Ltmp487              #   Call between .Ltmp487 and .Ltmp490
	.uleb128 .Ltmp491-.Lfunc_begin13        #     jumps to .Ltmp491
	.byte	3                               #   On action: 2
	.uleb128 .Ltmp492-.Lfunc_begin13        # >> Call Site 33 <<
	.uleb128 .Ltmp495-.Ltmp492              #   Call between .Ltmp492 and .Ltmp495
	.uleb128 .Ltmp496-.Lfunc_begin13        #     jumps to .Ltmp496
	.byte	3                               #   On action: 2
	.uleb128 .Ltmp497-.Lfunc_begin13        # >> Call Site 34 <<
	.uleb128 .Ltmp502-.Ltmp497              #   Call between .Ltmp497 and .Ltmp502
	.uleb128 .Ltmp503-.Lfunc_begin13        #     jumps to .Ltmp503
	.byte	3                               #   On action: 2
	.uleb128 .Ltmp504-.Lfunc_begin13        # >> Call Site 35 <<
	.uleb128 .Ltmp505-.Ltmp504              #   Call between .Ltmp504 and .Ltmp505
	.uleb128 .Ltmp506-.Lfunc_begin13        #     jumps to .Ltmp506
	.byte	3                               #   On action: 2
	.uleb128 .Ltmp507-.Lfunc_begin13        # >> Call Site 36 <<
	.uleb128 .Ltmp510-.Ltmp507              #   Call between .Ltmp507 and .Ltmp510
	.uleb128 .Ltmp511-.Lfunc_begin13        #     jumps to .Ltmp511
	.byte	3                               #   On action: 2
	.uleb128 .Ltmp512-.Lfunc_begin13        # >> Call Site 37 <<
	.uleb128 .Ltmp515-.Ltmp512              #   Call between .Ltmp512 and .Ltmp515
	.uleb128 .Ltmp516-.Lfunc_begin13        #     jumps to .Ltmp516
	.byte	3                               #   On action: 2
	.uleb128 .Ltmp515-.Lfunc_begin13        # >> Call Site 38 <<
	.uleb128 .Ltmp550-.Ltmp515              #   Call between .Ltmp515 and .Ltmp550
	.byte	0                               #     has no landing pad
	.byte	0                               #   On action: cleanup
	.uleb128 .Ltmp550-.Lfunc_begin13        # >> Call Site 39 <<
	.uleb128 .Ltmp551-.Ltmp550              #   Call between .Ltmp550 and .Ltmp551
	.uleb128 .Ltmp556-.Lfunc_begin13        #     jumps to .Ltmp556
	.byte	0                               #   On action: cleanup
	.uleb128 .Ltmp551-.Lfunc_begin13        # >> Call Site 40 <<
	.uleb128 .Ltmp552-.Ltmp551              #   Call between .Ltmp551 and .Ltmp552
	.byte	0                               #     has no landing pad
	.byte	0                               #   On action: cleanup
	.uleb128 .Ltmp552-.Lfunc_begin13        # >> Call Site 41 <<
	.uleb128 .Ltmp555-.Ltmp552              #   Call between .Ltmp552 and .Ltmp555
	.uleb128 .Ltmp556-.Lfunc_begin13        #     jumps to .Ltmp556
	.byte	0                               #   On action: cleanup
	.uleb128 .Ltmp560-.Lfunc_begin13        # >> Call Site 42 <<
	.uleb128 .Ltmp563-.Ltmp560              #   Call between .Ltmp560 and .Ltmp563
	.uleb128 .Ltmp564-.Lfunc_begin13        #     jumps to .Ltmp564
	.byte	0                               #   On action: cleanup
	.uleb128 .Ltmp557-.Lfunc_begin13        # >> Call Site 43 <<
	.uleb128 .Ltmp558-.Ltmp557              #   Call between .Ltmp557 and .Ltmp558
	.uleb128 .Ltmp559-.Lfunc_begin13        #     jumps to .Ltmp559
	.byte	5                               #   On action: 3
	.uleb128 .Ltmp558-.Lfunc_begin13        # >> Call Site 44 <<
	.uleb128 .Lfunc_end63-.Ltmp558          #   Call between .Ltmp558 and .Lfunc_end63
	.byte	0                               #     has no landing pad
	.byte	0                               #   On action: cleanup
.Lcst_end13:
	.byte	0                               # >> Action Record 1 <<
                                        #   Cleanup
	.byte	0                               #   No further actions
	.byte	1                               # >> Action Record 2 <<
                                        #   Catch TypeInfo 1
	.byte	125                             #   Continue to action 1
	.byte	2                               # >> Action Record 3 <<
                                        #   Catch TypeInfo 2
	.byte	0                               #   No further actions
	.p2align	2, 0x0
                                        # >> Catch TypeInfos <<
	.long	0                               # TypeInfo 2
.Ltmp565:                               # TypeInfo 1
	.long	.L_ZTIN3sql12SQLExceptionE.DW.stub-.Ltmp565
.Lttbase8:
	.p2align	2, 0x0
                                        # -- End function
	.text
	.globl	_Z15delete_databasev            # -- Begin function _Z15delete_databasev
	.p2align	4, 0x90
	.type	_Z15delete_databasev,@function
_Z15delete_databasev:                   # @_Z15delete_databasev
.Lfunc_begin14:
	.cfi_startproc
	.cfi_personality 155, DW.ref.__gxx_personality_v0
	.cfi_lsda 27, .Lexception14
# %bb.0:
	pushq	%rbp
	.cfi_def_cfa_offset 16
	.cfi_offset %rbp, -16
	movq	%rsp, %rbp
	.cfi_def_cfa_register %rbp
	subq	$128, %rsp
	movq	%fs:40, %rax
	movq	%rax, -8(%rbp)
	leaq	-16(%rbp), %rdi
	movq	%rdi, -88(%rbp)                 # 8-byte Spill
	callq	_Z13get_conectionv
	movq	-88(%rbp), %rdi                 # 8-byte Reload
	callq	_ZNKSt10unique_ptrIN3sql10ConnectionESt14default_deleteIS1_EEptEv
	movq	%rax, %rdi
	movq	(%rdi), %rax
	movq	16(%rax), %rax
.Ltmp566:
	callq	*%rax
.Ltmp567:
	movq	%rax, -80(%rbp)                 # 8-byte Spill
	jmp	.LBB64_1
.LBB64_1:
.Ltmp568:
	movq	-80(%rbp), %rsi                 # 8-byte Reload
	leaq	-32(%rbp), %rdi
	callq	_ZNSt10shared_ptrIN3sql9StatementEEC2IS1_vEEPT_
.Ltmp569:
	jmp	.LBB64_2
.LBB64_2:
	leaq	-32(%rbp), %rdi
	callq	_ZNKSt19__shared_ptr_accessIN3sql9StatementELN9__gnu_cxx12_Lock_policyE2ELb0ELb0EEptEv
	movq	%rax, -96(%rbp)                 # 8-byte Spill
.Ltmp571:
	leaq	.L.str.49(%rip), %rsi
	leaq	-40(%rbp), %rdi
	callq	_ZN3sql9SQLStringC1EPKc@PLT
.Ltmp572:
	jmp	.LBB64_3
.LBB64_3:
	movq	-96(%rbp), %rdi                 # 8-byte Reload
	movq	(%rdi), %rax
	movq	48(%rax), %rax
.Ltmp574:
	leaq	-40(%rbp), %rsi
	callq	*%rax
.Ltmp575:
	jmp	.LBB64_4
.LBB64_4:
	leaq	-40(%rbp), %rdi
	callq	_ZN3sql9SQLStringD1Ev@PLT
	leaq	-32(%rbp), %rdi
	callq	_ZNSt10shared_ptrIN3sql9StatementEED2Ev
	jmp	.LBB64_19
.LBB64_5:
.Ltmp570:
	movq	%rax, %rcx
	movl	%edx, %eax
	movq	%rcx, -48(%rbp)
	movl	%eax, -52(%rbp)
	jmp	.LBB64_9
.LBB64_6:
.Ltmp573:
	movq	%rax, %rcx
	movl	%edx, %eax
	movq	%rcx, -48(%rbp)
	movl	%eax, -52(%rbp)
	jmp	.LBB64_8
.LBB64_7:
.Ltmp576:
	movq	%rax, %rcx
	movl	%edx, %eax
	movq	%rcx, -48(%rbp)
	movl	%eax, -52(%rbp)
	leaq	-40(%rbp), %rdi
	callq	_ZN3sql9SQLStringD1Ev@PLT
.LBB64_8:
	leaq	-32(%rbp), %rdi
	callq	_ZNSt10shared_ptrIN3sql9StatementEED2Ev
.LBB64_9:
	movl	-52(%rbp), %eax
	movl	$1, %ecx
	cmpl	%ecx, %eax
	jne	.LBB64_25
# %bb.10:
	movq	-48(%rbp), %rdi
	callq	__cxa_begin_catch@PLT
	movq	%rax, -64(%rbp)
.Ltmp577:
	movq	_ZSt4cerr@GOTPCREL(%rip), %rdi
	leaq	.L.str.50(%rip), %rsi
	callq	_ZStlsISt11char_traitsIcEERSt13basic_ostreamIcT_ES5_PKc@PLT
.Ltmp578:
	movq	%rax, -104(%rbp)                # 8-byte Spill
	jmp	.LBB64_11
.LBB64_11:
	movq	-64(%rbp), %rdi
	movq	(%rdi), %rax
	movq	16(%rax), %rax
	callq	*%rax
	movq	-104(%rbp), %rdi                # 8-byte Reload
	movq	%rax, %rsi
.Ltmp579:
	callq	_ZStlsISt11char_traitsIcEERSt13basic_ostreamIcT_ES5_PKc@PLT
.Ltmp580:
	movq	%rax, -112(%rbp)                # 8-byte Spill
	jmp	.LBB64_12
.LBB64_12:
.Ltmp581:
	movq	-112(%rbp), %rdi                # 8-byte Reload
	movq	_ZSt4endlIcSt11char_traitsIcEERSt13basic_ostreamIT_T0_ES6_@GOTPCREL(%rip), %rsi
	callq	_ZNSolsEPFRSoS_E@PLT
.Ltmp582:
	jmp	.LBB64_13
.LBB64_13:
	leaq	-16(%rbp), %rdi
	callq	_ZNKSt10unique_ptrIN3sql10ConnectionESt14default_deleteIS1_EEptEv
	movq	%rax, %rdi
	movq	(%rdi), %rax
	movq	160(%rax), %rax
.Ltmp583:
	callq	*%rax
.Ltmp584:
	jmp	.LBB64_14
.LBB64_14:
	movl	$1, -68(%rbp)
.Ltmp589:
	callq	__cxa_end_catch@PLT
.Ltmp590:
	jmp	.LBB64_16
.LBB64_15:
.Ltmp585:
	movq	%rax, %rcx
	movl	%edx, %eax
	movq	%rcx, -48(%rbp)
	movl	%eax, -52(%rbp)
.Ltmp586:
	callq	__cxa_end_catch@PLT
.Ltmp587:
	jmp	.LBB64_18
.LBB64_16:
	jmp	.LBB64_22
.LBB64_17:
.Ltmp595:
	movq	%rax, %rcx
	movl	%edx, %eax
	movq	%rcx, -48(%rbp)
	movl	%eax, -52(%rbp)
	jmp	.LBB64_25
.LBB64_18:
	jmp	.LBB64_25
.LBB64_19:
	leaq	-16(%rbp), %rdi
	callq	_ZNKSt10unique_ptrIN3sql10ConnectionESt14default_deleteIS1_EEptEv
	movq	%rax, %rdi
	movq	(%rdi), %rax
	movq	160(%rax), %rax
.Ltmp591:
	callq	*%rax
.Ltmp592:
	jmp	.LBB64_20
.LBB64_20:
.Ltmp593:
	leaq	.L.str.51(%rip), %rdi
	xorl	%eax, %eax
                                        # kill: def $al killed $al killed $eax
	callq	printf@PLT
.Ltmp594:
	jmp	.LBB64_21
.LBB64_21:
	movl	$0, -68(%rbp)
.LBB64_22:
	leaq	-16(%rbp), %rdi
	callq	_ZNSt10unique_ptrIN3sql10ConnectionESt14default_deleteIS1_EED2Ev
# %bb.23:
	movq	%fs:40, %rax
	movq	-8(%rbp), %rcx
	cmpq	%rcx, %rax
	jne	.LBB64_30
# %bb.24:
	addq	$128, %rsp
	popq	%rbp
	.cfi_def_cfa %rsp, 8
	retq
.LBB64_25:
	.cfi_def_cfa %rbp, 16
	leaq	-16(%rbp), %rdi
	callq	_ZNSt10unique_ptrIN3sql10ConnectionESt14default_deleteIS1_EED2Ev
# %bb.26:
	movq	-48(%rbp), %rax
	movq	%rax, -120(%rbp)                # 8-byte Spill
	movq	%fs:40, %rax
	movq	-8(%rbp), %rcx
	cmpq	%rcx, %rax
	jne	.LBB64_30
# %bb.27:
	movq	-120(%rbp), %rdi                # 8-byte Reload
	callq	_Unwind_Resume@PLT
.LBB64_28:
.Ltmp588:
	movq	%rax, %rdi
                                        # kill: def $eax killed $edx killed $rdx
	callq	__clang_call_terminate
# %bb.29:
	.cfi_def_cfa %rsp, 8
	.cfi_restore %rbp
.LBB64_30:
	.cfi_def_cfa %rbp, 16
	.cfi_offset %rbp, -16
	callq	__stack_chk_fail@PLT
.Lfunc_end64:
	.size	_Z15delete_databasev, .Lfunc_end64-_Z15delete_databasev
	.cfi_endproc
	.section	.gcc_except_table,"a",@progbits
	.p2align	2, 0x0
GCC_except_table64:
.Lexception14:
	.byte	255                             # @LPStart Encoding = omit
	.byte	155                             # @TType Encoding = indirect pcrel sdata4
	.uleb128 .Lttbase9-.Lttbaseref9
.Lttbaseref9:
	.byte	1                               # Call site Encoding = uleb128
	.uleb128 .Lcst_end14-.Lcst_begin14
.Lcst_begin14:
	.uleb128 .Lfunc_begin14-.Lfunc_begin14  # >> Call Site 1 <<
	.uleb128 .Ltmp566-.Lfunc_begin14        #   Call between .Lfunc_begin14 and .Ltmp566
	.byte	0                               #     has no landing pad
	.byte	0                               #   On action: cleanup
	.uleb128 .Ltmp566-.Lfunc_begin14        # >> Call Site 2 <<
	.uleb128 .Ltmp569-.Ltmp566              #   Call between .Ltmp566 and .Ltmp569
	.uleb128 .Ltmp570-.Lfunc_begin14        #     jumps to .Ltmp570
	.byte	3                               #   On action: 2
	.uleb128 .Ltmp571-.Lfunc_begin14        # >> Call Site 3 <<
	.uleb128 .Ltmp572-.Ltmp571              #   Call between .Ltmp571 and .Ltmp572
	.uleb128 .Ltmp573-.Lfunc_begin14        #     jumps to .Ltmp573
	.byte	3                               #   On action: 2
	.uleb128 .Ltmp574-.Lfunc_begin14        # >> Call Site 4 <<
	.uleb128 .Ltmp575-.Ltmp574              #   Call between .Ltmp574 and .Ltmp575
	.uleb128 .Ltmp576-.Lfunc_begin14        #     jumps to .Ltmp576
	.byte	3                               #   On action: 2
	.uleb128 .Ltmp575-.Lfunc_begin14        # >> Call Site 5 <<
	.uleb128 .Ltmp577-.Ltmp575              #   Call between .Ltmp575 and .Ltmp577
	.byte	0                               #     has no landing pad
	.byte	0                               #   On action: cleanup
	.uleb128 .Ltmp577-.Lfunc_begin14        # >> Call Site 6 <<
	.uleb128 .Ltmp578-.Ltmp577              #   Call between .Ltmp577 and .Ltmp578
	.uleb128 .Ltmp585-.Lfunc_begin14        #     jumps to .Ltmp585
	.byte	0                               #   On action: cleanup
	.uleb128 .Ltmp578-.Lfunc_begin14        # >> Call Site 7 <<
	.uleb128 .Ltmp579-.Ltmp578              #   Call between .Ltmp578 and .Ltmp579
	.byte	0                               #     has no landing pad
	.byte	0                               #   On action: cleanup
	.uleb128 .Ltmp579-.Lfunc_begin14        # >> Call Site 8 <<
	.uleb128 .Ltmp584-.Ltmp579              #   Call between .Ltmp579 and .Ltmp584
	.uleb128 .Ltmp585-.Lfunc_begin14        #     jumps to .Ltmp585
	.byte	0                               #   On action: cleanup
	.uleb128 .Ltmp589-.Lfunc_begin14        # >> Call Site 9 <<
	.uleb128 .Ltmp590-.Ltmp589              #   Call between .Ltmp589 and .Ltmp590
	.uleb128 .Ltmp595-.Lfunc_begin14        #     jumps to .Ltmp595
	.byte	0                               #   On action: cleanup
	.uleb128 .Ltmp586-.Lfunc_begin14        # >> Call Site 10 <<
	.uleb128 .Ltmp587-.Ltmp586              #   Call between .Ltmp586 and .Ltmp587
	.uleb128 .Ltmp588-.Lfunc_begin14        #     jumps to .Ltmp588
	.byte	5                               #   On action: 3
	.uleb128 .Ltmp591-.Lfunc_begin14        # >> Call Site 11 <<
	.uleb128 .Ltmp594-.Ltmp591              #   Call between .Ltmp591 and .Ltmp594
	.uleb128 .Ltmp595-.Lfunc_begin14        #     jumps to .Ltmp595
	.byte	0                               #   On action: cleanup
	.uleb128 .Ltmp594-.Lfunc_begin14        # >> Call Site 12 <<
	.uleb128 .Lfunc_end64-.Ltmp594          #   Call between .Ltmp594 and .Lfunc_end64
	.byte	0                               #     has no landing pad
	.byte	0                               #   On action: cleanup
.Lcst_end14:
	.byte	0                               # >> Action Record 1 <<
                                        #   Cleanup
	.byte	0                               #   No further actions
	.byte	1                               # >> Action Record 2 <<
                                        #   Catch TypeInfo 1
	.byte	125                             #   Continue to action 1
	.byte	2                               # >> Action Record 3 <<
                                        #   Catch TypeInfo 2
	.byte	0                               #   No further actions
	.p2align	2, 0x0
                                        # >> Catch TypeInfos <<
	.long	0                               # TypeInfo 2
.Ltmp596:                               # TypeInfo 1
	.long	.L_ZTIN3sql12SQLExceptionE.DW.stub-.Ltmp596
.Lttbase9:
	.p2align	2, 0x0
                                        # -- End function
	.text
	.globl	_Z10deregisteri                 # -- Begin function _Z10deregisteri
	.p2align	4, 0x90
	.type	_Z10deregisteri,@function
_Z10deregisteri:                        # @_Z10deregisteri
.Lfunc_begin15:
	.cfi_startproc
	.cfi_personality 155, DW.ref.__gxx_personality_v0
	.cfi_lsda 27, .Lexception15
# %bb.0:
	pushq	%rbp
	.cfi_def_cfa_offset 16
	.cfi_offset %rbp, -16
	movq	%rsp, %rbp
	.cfi_def_cfa_register %rbp
	subq	$128, %rsp
	movq	%fs:40, %rax
	movq	%rax, -8(%rbp)
	movl	%edi, -44(%rbp)
	leaq	-16(%rbp), %rdi
	movq	%rdi, -88(%rbp)                 # 8-byte Spill
	callq	_Z13get_conectionv
	movq	-88(%rbp), %rdi                 # 8-byte Reload
	callq	_ZNKSt10unique_ptrIN3sql10ConnectionESt14default_deleteIS1_EEptEv
	movq	%rax, -80(%rbp)                 # 8-byte Spill
.Ltmp597:
	leaq	.L.str.52(%rip), %rsi
	leaq	-40(%rbp), %rdi
	callq	_ZN3sql9SQLStringC1EPKc@PLT
.Ltmp598:
	jmp	.LBB65_1
.LBB65_1:
	movq	-80(%rbp), %rdi                 # 8-byte Reload
	movq	(%rdi), %rax
	movq	40(%rax), %rax
.Ltmp600:
	leaq	-40(%rbp), %rsi
	callq	*%rax
.Ltmp601:
	movq	%rax, -96(%rbp)                 # 8-byte Spill
	jmp	.LBB65_2
.LBB65_2:
.Ltmp602:
	movq	-96(%rbp), %rsi                 # 8-byte Reload
	leaq	-32(%rbp), %rdi
	callq	_ZNSt10shared_ptrIN3sql17PreparedStatementEEC2IS1_vEEPT_
.Ltmp603:
	jmp	.LBB65_3
.LBB65_3:
	leaq	-40(%rbp), %rdi
	callq	_ZN3sql9SQLStringD1Ev@PLT
	leaq	-32(%rbp), %rdi
	callq	_ZNKSt19__shared_ptr_accessIN3sql17PreparedStatementELN9__gnu_cxx12_Lock_policyE2ELb0ELb0EEptEv
	movq	%rax, %rdi
	movl	-44(%rbp), %edx
	movq	(%rdi), %rax
	movq	536(%rax), %rax
.Ltmp605:
	movl	$1, %esi
	callq	*%rax
.Ltmp606:
	jmp	.LBB65_4
.LBB65_4:
	leaq	-32(%rbp), %rdi
	callq	_ZNKSt19__shared_ptr_accessIN3sql17PreparedStatementELN9__gnu_cxx12_Lock_policyE2ELb0ELb0EEptEv
	movq	%rax, %rdi
	movq	(%rdi), %rax
	movq	440(%rax), %rax
.Ltmp607:
	callq	*%rax
.Ltmp608:
	jmp	.LBB65_5
.LBB65_5:
	jmp	.LBB65_15
.LBB65_6:
.Ltmp599:
	movq	%rax, %rcx
	movl	%edx, %eax
	movq	%rcx, -56(%rbp)
	movl	%eax, -60(%rbp)
	jmp	.LBB65_22
.LBB65_7:
.Ltmp604:
	movq	%rax, %rcx
	movl	%edx, %eax
	movq	%rcx, -56(%rbp)
	movl	%eax, -60(%rbp)
	leaq	-40(%rbp), %rdi
	callq	_ZN3sql9SQLStringD1Ev@PLT
	jmp	.LBB65_22
.LBB65_8:
.Ltmp609:
	movq	%rax, %rcx
	movl	%edx, %eax
	movq	%rcx, -56(%rbp)
	movl	%eax, -60(%rbp)
# %bb.9:
	movl	-60(%rbp), %eax
	movl	$1, %ecx
	cmpl	%ecx, %eax
	jne	.LBB65_21
# %bb.10:
	movq	-56(%rbp), %rdi
	callq	__cxa_begin_catch@PLT
	movq	%rax, -72(%rbp)
.Ltmp610:
	movq	_ZSt4cerr@GOTPCREL(%rip), %rdi
	leaq	.L.str.53(%rip), %rsi
	callq	_ZStlsISt11char_traitsIcEERSt13basic_ostreamIcT_ES5_PKc@PLT
.Ltmp611:
	movq	%rax, -104(%rbp)                # 8-byte Spill
	jmp	.LBB65_11
.LBB65_11:
	movq	-72(%rbp), %rdi
	movq	(%rdi), %rax
	movq	16(%rax), %rax
	callq	*%rax
	movq	-104(%rbp), %rdi                # 8-byte Reload
	movq	%rax, %rsi
.Ltmp612:
	callq	_ZStlsISt11char_traitsIcEERSt13basic_ostreamIcT_ES5_PKc@PLT
.Ltmp613:
	movq	%rax, -112(%rbp)                # 8-byte Spill
	jmp	.LBB65_12
.LBB65_12:
.Ltmp614:
	movq	-112(%rbp), %rdi                # 8-byte Reload
	movq	_ZSt4endlIcSt11char_traitsIcEERSt13basic_ostreamIT_T0_ES6_@GOTPCREL(%rip), %rsi
	callq	_ZNSolsEPFRSoS_E@PLT
.Ltmp615:
	jmp	.LBB65_13
.LBB65_13:
.Ltmp620:
	callq	__cxa_end_catch@PLT
.Ltmp621:
	jmp	.LBB65_14
.LBB65_14:
	jmp	.LBB65_15
.LBB65_15:
	leaq	-16(%rbp), %rdi
	callq	_ZNKSt10unique_ptrIN3sql10ConnectionESt14default_deleteIS1_EEptEv
	movq	%rax, %rdi
	movq	(%rdi), %rax
	movq	160(%rax), %rax
.Ltmp622:
	callq	*%rax
.Ltmp623:
	jmp	.LBB65_16
.LBB65_16:
	leaq	-32(%rbp), %rdi
	callq	_ZNSt10shared_ptrIN3sql17PreparedStatementEED2Ev
	leaq	-16(%rbp), %rdi
	callq	_ZNSt10unique_ptrIN3sql10ConnectionESt14default_deleteIS1_EED2Ev
	movq	%fs:40, %rax
	movq	-8(%rbp), %rcx
	cmpq	%rcx, %rax
	jne	.LBB65_26
# %bb.17:
	addq	$128, %rsp
	popq	%rbp
	.cfi_def_cfa %rsp, 8
	retq
.LBB65_18:
	.cfi_def_cfa %rbp, 16
.Ltmp616:
	movq	%rax, %rcx
	movl	%edx, %eax
	movq	%rcx, -56(%rbp)
	movl	%eax, -60(%rbp)
.Ltmp617:
	callq	__cxa_end_catch@PLT
.Ltmp618:
	jmp	.LBB65_20
.LBB65_19:
